Certificate:
    Data:
        Version: 3 (0x2)
        Serial Number: 5 (0x5)
        Signature Algorithm: md5WithRSAEncryption
        Issuer: C=CA, ST=Ontario, O=Openswan, CN=ca.openswan.org/emailAddress=ca@openswan.org
        Validity
            Not Before: May 28 16:48:42 2004 GMT
            Not After : May 26 16:48:42 2014 GMT
        Subject: C=CA, ST=Ontario, O=Openswan, CN=ca.openswan.org/emailAddress=ca@openswan.org
        Subject Public Key Info:
            Public Key Algorithm: rsaEncryption
            RSA Public Key: (2048 bit)
                Modulus (2048 bit):
                    00:df:ec:dc:7b:a2:74:6a:f7:8a:9a:1d:26:e1:a6:
                    d4:d3:29:e7:04:4a:fb:0b:fe:89:2a:4e:e7:1c:d3:
                    db:a1:11:39:f7:a6:d2:c8:18:b0:70:a1:c8:a5:77:
                    2d:ec:1b:f8:9a:7c:ea:fc:d3:77:0a:2b:de:55:1f:
                    e5:91:59:31:20:29:e0:8d:f9:9f:79:62:b9:66:8c:
                    9b:98:1f:ae:45:92:04:e7:e9:84:f3:56:22:78:ac:
                    f3:7d:c2:ba:e0:be:2e:cb:f5:01:a6:89:46:30:19:
                    f1:e6:d2:29:8c:e4:5f:44:59:22:50:e4:c9:89:39:
                    17:74:a3:5b:ee:e1:5f:b5:1c:36:b5:08:ed:b3:9f:
                    0b:74:01:7c:f9:2a:68:b5:a9:e8:a3:77:10:be:bc:
                    ce:d8:6e:8f:6f:66:bc:aa:ee:97:9f:f2:c8:0d:4c:
                    97:c9:e7:ae:12:79:8f:13:7a:39:0c:eb:bb:32:12:
                    d1:e4:7d:00:7f:dd:59:ca:17:39:fa:22:3a:0d:de:
                    fd:9a:1b:d3:3f:0a:a1:aa:58:a8:56:a5:d1:ba:ba:
                    8b:a7:58:f0:49:f1:56:dc:b7:23:e1:48:22:c3:cc:
                    92:85:e8:8a:8c:61:fb:4c:3f:f5:38:53:08:8a:92:
                    75:7a:b7:bd:e1:5d:0e:83:e8:00:ce:25:b0:e3:fa:
                    eb:25
                Exponent: 65537 (0x10001)
        X509v3 extensions:
            X509v3 Basic Constraints: 
                CA:FALSE
            Netscape Comment: 
                OpenSSL Generated Certificate
            X509v3 Subject Key Identifier: 
                19:60:BC:92:E1:E1:3D:2C:7A:8F:EA:C0:DB:50:03:08:01:32:F0:27
            X509v3 Authority Key Identifier: 
                keyid:19:60:BC:92:E1:E1:3D:2C:7A:8F:EA:C0:DB:50:03:08:01:32:F0:27
                DirName:/C=CA/ST=Ontario/L=Toronto/O=Openswan/CN=ca.openswan.org/emailAddress=ca@openswan.org
                serial:04

    Signature Algorithm: md5WithRSAEncryption
        0e:41:a0:5e:6d:0e:19:b5:a3:50:e5:d3:e0:37:64:21:4d:cf:
        83:13:e5:3f:26:f7:97:c6:95:54:ea:ff:6b:c7:d9:c7:22:e6:
        4f:cb:9e:ae:e9:f9:c0:1b:d9:6f:36:99:c1:60:27:9d:44:e6:
        92:92:04:dc:91:23:7f:f8:fe:8d:07:82:70:81:df:5c:0b:fb:
        bf:37:5d:dc:ca:1f:c4:ef:ac:fe:7e:f3:bb:95:4c:45:20:69:
        3c:51:a2:ee:4f:dc:96:09:08:97:78:09:e5:92:71:55:96:be:
        ff:31:f9:79:e2:af:54:e6:8f:5c:d8:56:6e:39:2b:22:d4:f1:
        14:a1:17:e3:62:cc:ff:5d:11:5f:e0:2f:ad:42:16:c2:37:a4:
        fe:e5:f2:26:72:56:0d:7e:be:70:52:0b:0a:40:a0:85:d5:1d:
        1d:c3:9e:2a:f1:c3:95:59:e4:2a:e8:c3:ca:62:18:48:79:4a:
        1a:53:e9:67:4e:9c:1d:99:e6:a7:4f:ef:35:a2:bf:0d:a9:dc:
        6c:89:66:55:2e:05:67:49:8c:8e:cd:ea:b2:8f:67:d5:e7:f0:
        3d:ea:c8:11:37:e5:d7:77:ab:76:31:83:2c:16:db:4c:f8:35:
        17:80:e6:15:f7:7b:fb:01:04:0b:19:ee:7c:10:66:d3:92:c2:
        19:1d:c0:16
-----BEGIN CERTIFICATE-----
MIIEXjCCA0agAwIBAgIBBTANBgkqhkiG9w0BAQQFADBsMQswCQYDVQQGEwJDQTEQ
MA4GA1UECBMHT250YXJpbzERMA8GA1UEChMIT3BlbnN3YW4xGDAWBgNVBAMTD2Nh
Lm9wZW5zd2FuLm9yZzEeMBwGCSqGSIb3DQEJARYPY2FAb3BlbnN3YW4ub3JnMB4X
DTA0MDUyODE2NDg0MloXDTE0MDUyNjE2NDg0MlowbDELMAkGA1UEBhMCQ0ExEDAO
BgNVBAgTB09udGFyaW8xETAPBgNVBAoTCE9wZW5zd2FuMRgwFgYDVQQDEw9jYS5v
cGVuc3dhbi5vcmcxHjAcBgkqhkiG9w0BCQEWD2NhQG9wZW5zd2FuLm9yZzCCASIw
DQYJKoZIhvcNAQEBBQADggEPADCCAQoCggEBAN/s3HuidGr3ipodJuGm1NMp5wRK
+wv+iSpO5xzT26EROfem0sgYsHChyKV3Lewb+Jp86vzTdwor3lUf5ZFZMSAp4I35
n3liuWaMm5gfrkWSBOfphPNWInis833CuuC+Lsv1AaaJRjAZ8ebSKYzkX0RZIlDk
yYk5F3SjW+7hX7UcNrUI7bOfC3QBfPkqaLWp6KN3EL68zthuj29mvKrul5/yyA1M
l8nnrhJ5jxN6OQzruzIS0eR9AH/dWcoXOfoiOg3e/Zob0z8KoapYqFal0bq6i6dY
8EnxVty3I+FIIsPMkoXoioxh+0w/9ThTCIqSdXq3veFdDoPoAM4lsOP66yUCAwEA
AaOCAQkwggEFMAkGA1UdEwQCMAAwLAYJYIZIAYb4QgENBB8WHU9wZW5TU0wgR2Vu
ZXJhdGVkIENlcnRpZmljYXRlMB0GA1UdDgQWBBQZYLyS4eE9LHqP6sDbUAMIATLw
JzCBqgYDVR0jBIGiMIGfgBQZYLyS4eE9LHqP6sDbUAMIATLwJ6GBg6SBgDB+MQsw
CQYDVQQGEwJDQTEQMA4GA1UECBMHT250YXJpbzEQMA4GA1UEBxMHVG9yb250bzER
MA8GA1UEChMIT3BlbnN3YW4xGDAWBgNVBAMTD2NhLm9wZW5zd2FuLm9yZzEeMBwG
CSqGSIb3DQEJARYPY2FAb3BlbnN3YW4ub3JnggEEMA0GCSqGSIb3DQEBBAUAA4IB
AQAOQaBebQ4ZtaNQ5dPgN2QhTc+DE+U/JveXxpVU6v9rx9nHIuZPy56u6fnAG9lv
NpnBYCedROaSkgTckSN/+P6NB4Jwgd9cC/u/N13cyh/E76z+fvO7lUxFIGk8UaLu
T9yWCQiXeAnlknFVlr7/Mfl54q9U5o9c2FZuOSsi1PEUoRfjYsz/XRFf4C+tQhbC
N6T+5fImclYNfr5wUgsKQKCF1R0dw54q8cOVWeQq6MPKYhhIeUoaU+lnTpwdmean
T+81or8NqdxsiWZVLgVnSYyOzeqyj2fV5/A96sgRN+XXd6t2MYMsFttM+DUXgOYV
93v7AQQLGe58EGbTksIZHcAW
-----END CERTIFICATE-----
