Certificate:
    Data:
        Version: 3 (0x2)
        Serial Number: 6 (0x6)
        Signature Algorithm: md5WithRSAEncryption
        Issuer: C=CA, ST=Ontario, O=Openswan, CN=ca.openswan.org/emailAddress=ca@openswan.org
        Validity
            Not Before: May 28 16:52:29 2004 GMT
            Not After : May 28 16:52:29 2005 GMT
        Subject: C=CA, ST=Ontario, O=Openswan, L=Toronto, CN=east.uml.freeswan.org/emailAddress=east@openswan.org
        Subject Public Key Info:
            Public Key Algorithm: rsaEncryption
            RSA Public Key: (1024 bit)
                Modulus (1024 bit):
                    00:a1:47:61:e0:9a:0f:5e:9c:51:92:76:9f:44:e4:
                    ac:6e:26:e6:d8:ec:a0:ab:6e:df:71:db:49:f1:e7:
                    d6:07:39:87:73:6a:da:78:b9:0b:db:49:48:0b:1e:
                    d0:18:df:b8:4c:c4:dc:61:32:57:96:e9:73:ab:6e:
                    ac:a3:7f:d4:77:ca:67:d0:6c:47:0b:f9:f7:1f:db:
                    48:bf:d8:a0:7a:c8:7d:41:a9:33:95:36:68:0a:93:
                    4d:7c:ed:00:14:47:40:27:73:c8:d6:93:84:56:16:
                    b6:9e:9c:7d:60:c7:69:85:af:c4:29:37:f0:a3:90:
                    13:61:b1:30:a8:b8:60:a0:99
                Exponent: 65537 (0x10001)
        X509v3 extensions:
            X509v3 Basic Constraints: 
                CA:FALSE
            Netscape Comment: 
                OpenSSL Generated Certificate
            X509v3 Subject Key Identifier: 
                D2:EC:EB:7E:17:44:C8:37:4B:54:DC:88:73:A2:E6:79:4C:2D:14:51
            X509v3 Authority Key Identifier: 
                keyid:19:60:BC:92:E1:E1:3D:2C:7A:8F:EA:C0:DB:50:03:08:01:32:F0:27
                DirName:/C=CA/ST=Ontario/O=Openswan/CN=ca.openswan.org/emailAddress=ca@openswan.org
                serial:05

    Signature Algorithm: md5WithRSAEncryption
        8c:e0:47:5e:74:4f:e5:f0:fe:bc:bd:ae:19:84:b1:ca:00:b8:
        e0:f3:55:d0:48:97:2a:1b:47:39:1e:d9:6f:2d:9e:ec:86:f0:
        e6:31:5d:10:63:30:44:f8:06:1c:5b:c5:91:af:88:b8:0d:53:
        7b:ca:7d:41:0d:49:2e:d6:92:69:9c:3a:3b:95:d4:82:8f:bb:
        98:49:72:f9:1a:1f:20:5b:53:11:36:ca:e9:e7:f3:f1:f6:93:
        0f:e3:b0:b9:9c:ad:bf:3e:ff:ed:60:41:83:3a:1a:55:17:6c:
        e3:c4:19:77:7a:32:4b:eb:58:89:43:83:3c:b4:f4:4c:c5:bc:
        f5:d2:d5:85:23:40:ad:d0:e9:ce:6d:ab:31:c2:63:3e:cb:1e:
        93:86:c9:45:2e:98:41:0c:b6:df:c6:5c:ca:ad:2e:fc:dd:f9:
        a2:36:ce:f9:03:54:4f:19:18:18:09:fb:a4:a3:27:f6:e5:01:
        6e:db:df:71:9a:96:dc:a6:ca:7c:09:93:25:50:69:83:f5:bc:
        d5:00:30:74:99:23:f5:e2:65:0d:eb:f9:f9:bf:fe:75:64:82:
        7d:34:7e:16:54:dd:15:0e:49:fb:76:68:33:71:18:d1:c7:e7:
        c7:2b:34:9f:42:64:63:8d:17:05:e5:e3:d2:54:a5:b1:9f:8f:
        07:84:4f:63
-----BEGIN CERTIFICATE-----
MIID3zCCAsegAwIBAgIBBjANBgkqhkiG9w0BAQQFADBsMQswCQYDVQQGEwJDQTEQ
MA4GA1UECBMHT250YXJpbzERMA8GA1UEChMIT3BlbnN3YW4xGDAWBgNVBAMTD2Nh
Lm9wZW5zd2FuLm9yZzEeMBwGCSqGSIb3DQEJARYPY2FAb3BlbnN3YW4ub3JnMB4X
DTA0MDUyODE2NTIyOVoXDTA1MDUyODE2NTIyOVowgYYxCzAJBgNVBAYTAkNBMRAw
DgYDVQQIEwdPbnRhcmlvMREwDwYDVQQKEwhPcGVuc3dhbjEQMA4GA1UEBxMHVG9y
b250bzEeMBwGA1UEAxMVZWFzdC51bWwuZnJlZXN3YW4ub3JnMSAwHgYJKoZIhvcN
AQkBFhFlYXN0QG9wZW5zd2FuLm9yZzCBnzANBgkqhkiG9w0BAQEFAAOBjQAwgYkC
gYEAoUdh4JoPXpxRknafROSsbibm2Oygq27fcdtJ8efWBzmHc2raeLkL20lICx7Q
GN+4TMTcYTJXlulzq26so3/Ud8pn0GxHC/n3H9tIv9igesh9QakzlTZoCpNNfO0A
FEdAJ3PI1pOEVha2npx9YMdpha/EKTfwo5ATYbEwqLhgoJkCAwEAAaOB9DCB8TAJ
BgNVHRMEAjAAMCwGCWCGSAGG+EIBDQQfFh1PcGVuU1NMIEdlbmVyYXRlZCBDZXJ0
aWZpY2F0ZTAdBgNVHQ4EFgQU0uzrfhdEyDdLVNyIc6LmeUwtFFEwgZYGA1UdIwSB
jjCBi4AUGWC8kuHhPSx6j+rA21ADCAEy8CehcKRuMGwxCzAJBgNVBAYTAkNBMRAw
DgYDVQQIEwdPbnRhcmlvMREwDwYDVQQKEwhPcGVuc3dhbjEYMBYGA1UEAxMPY2Eu
b3BlbnN3YW4ub3JnMR4wHAYJKoZIhvcNAQkBFg9jYUBvcGVuc3dhbi5vcmeCAQUw
DQYJKoZIhvcNAQEEBQADggEBAIzgR150T+Xw/ry9rhmEscoAuODzVdBIlyobRzke
2W8tnuyG8OYxXRBjMET4BhxbxZGviLgNU3vKfUENSS7WkmmcOjuV1IKPu5hJcvka
HyBbUxE2yunn8/H2kw/jsLmcrb8+/+1gQYM6GlUXbOPEGXd6MkvrWIlDgzy09EzF
vPXS1YUjQK3Q6c5tqzHCYz7LHpOGyUUumEEMtt/GXMqtLvzd+aI2zvkDVE8ZGBgJ
+6SjJ/blAW7b33GaltymynwJkyVQaYP1vNUAMHSZI/XiZQ3r+fm//nVkgn00fhZU
3RUOSft2aDNxGNHH58crNJ9CZGONFwXl49JUpbGfjweET2M=
-----END CERTIFICATE-----
