Certificate:
    Data:
        Version: 3 (0x2)
        Serial Number: 7 (0x7)
        Signature Algorithm: md5WithRSAEncryption
        Issuer: C=CA, ST=Ontario, O=Openswan, CN=ca.openswan.org/emailAddress=ca@openswan.org
        Validity
            Not Before: May 28 16:52:53 2004 GMT
            Not After : May 28 16:52:53 2005 GMT
        Subject: C=CA, ST=Ontario, O=Openswan, L=Toronto, CN=west.uml.freeswan.org/emailAddress=west@openswan.org
        Subject Public Key Info:
            Public Key Algorithm: rsaEncryption
            RSA Public Key: (1024 bit)
                Modulus (1024 bit):
                    00:d6:54:88:40:e5:1e:6e:74:55:01:fb:db:1a:2f:
                    de:d5:86:23:42:91:d3:f4:be:73:36:5e:10:03:f7:
                    2c:65:4f:d8:70:76:da:50:09:0c:c3:c2:7e:8f:80:
                    97:ac:8f:97:05:52:1a:aa:92:a3:3a:2e:7f:e3:2b:
                    01:11:27:03:16:29:32:2a:06:a2:e5:e0:5c:81:47:
                    85:a5:dd:0a:3d:6f:f3:7f:e6:0e:a2:b8:fc:d0:b2:
                    bf:41:39:8b:83:46:1a:0b:d5:ce:66:8f:bf:b9:8a:
                    5e:78:01:66:50:b2:a7:27:09:b5:d1:5f:3d:4d:60:
                    a7:3b:e0:6f:d3:d6:56:44:3d
                Exponent: 65537 (0x10001)
        X509v3 extensions:
            X509v3 Basic Constraints: 
                CA:FALSE
            Netscape Comment: 
                OpenSSL Generated Certificate
            X509v3 Subject Key Identifier: 
                E3:0B:BA:24:50:5B:5B:8C:BB:33:59:22:38:B9:39:46:0F:5A:A7:89
            X509v3 Authority Key Identifier: 
                keyid:19:60:BC:92:E1:E1:3D:2C:7A:8F:EA:C0:DB:50:03:08:01:32:F0:27
                DirName:/C=CA/ST=Ontario/O=Openswan/CN=ca.openswan.org/emailAddress=ca@openswan.org
                serial:05

    Signature Algorithm: md5WithRSAEncryption
        57:b4:1f:cf:7d:bd:ea:90:57:eb:60:24:7a:6d:c2:d0:18:a2:
        be:2d:dd:34:c3:20:d3:f4:1d:9c:2a:60:8f:eb:06:e5:16:a4:
        6c:15:61:ad:d5:29:96:d0:82:97:f9:1f:d9:c2:b2:82:66:ea:
        b6:d0:0f:df:a9:d5:cb:77:5f:5d:2c:ae:5a:1f:b6:2b:eb:df:
        af:41:73:bb:47:88:86:a7:1f:b9:8e:1d:9c:05:c8:e4:74:7f:
        2f:98:e6:ff:b5:1e:38:bf:05:b4:4a:85:23:f6:47:f0:85:9e:
        5c:1b:79:18:db:d0:7c:0d:64:9b:f3:4e:13:29:5c:94:e2:c6:
        56:12:bf:4d:8d:aa:1f:cb:98:e6:9a:5f:89:f3:ff:04:b1:af:
        83:5a:39:bd:2a:09:74:6b:59:46:80:aa:06:23:3d:9b:20:f4:
        e8:e1:4e:92:12:9f:ae:02:01:f0:23:5e:89:e3:30:e3:42:a7:
        b5:b4:9b:eb:66:11:33:50:cb:0b:f4:c4:53:63:44:b7:a7:be:
        09:68:b3:0f:3f:4f:8d:58:d5:0c:28:1d:b4:38:cc:89:4d:15:
        74:c8:07:e0:63:8c:b2:2a:f8:40:7b:87:86:ea:f5:58:32:b7:
        5a:8f:b1:99:61:6a:40:20:8f:36:45:90:17:db:c7:b8:52:1f:
        09:58:1e:d9
-----BEGIN CERTIFICATE-----
MIID3zCCAsegAwIBAgIBBzANBgkqhkiG9w0BAQQFADBsMQswCQYDVQQGEwJDQTEQ
MA4GA1UECBMHT250YXJpbzERMA8GA1UEChMIT3BlbnN3YW4xGDAWBgNVBAMTD2Nh
Lm9wZW5zd2FuLm9yZzEeMBwGCSqGSIb3DQEJARYPY2FAb3BlbnN3YW4ub3JnMB4X
DTA0MDUyODE2NTI1M1oXDTA1MDUyODE2NTI1M1owgYYxCzAJBgNVBAYTAkNBMRAw
DgYDVQQIEwdPbnRhcmlvMREwDwYDVQQKEwhPcGVuc3dhbjEQMA4GA1UEBxMHVG9y
b250bzEeMBwGA1UEAxMVd2VzdC51bWwuZnJlZXN3YW4ub3JnMSAwHgYJKoZIhvcN
AQkBFhF3ZXN0QG9wZW5zd2FuLm9yZzCBnzANBgkqhkiG9w0BAQEFAAOBjQAwgYkC
gYEA1lSIQOUebnRVAfvbGi/e1YYjQpHT9L5zNl4QA/csZU/YcHbaUAkMw8J+j4CX
rI+XBVIaqpKjOi5/4ysBEScDFikyKgai5eBcgUeFpd0KPW/zf+YOorj80LK/QTmL
g0YaC9XOZo+/uYpeeAFmULKnJwm10V89TWCnO+Bv09ZWRD0CAwEAAaOB9DCB8TAJ
BgNVHRMEAjAAMCwGCWCGSAGG+EIBDQQfFh1PcGVuU1NMIEdlbmVyYXRlZCBDZXJ0
aWZpY2F0ZTAdBgNVHQ4EFgQU4wu6JFBbW4y7M1kiOLk5Rg9ap4kwgZYGA1UdIwSB
jjCBi4AUGWC8kuHhPSx6j+rA21ADCAEy8CehcKRuMGwxCzAJBgNVBAYTAkNBMRAw
DgYDVQQIEwdPbnRhcmlvMREwDwYDVQQKEwhPcGVuc3dhbjEYMBYGA1UEAxMPY2Eu
b3BlbnN3YW4ub3JnMR4wHAYJKoZIhvcNAQkBFg9jYUBvcGVuc3dhbi5vcmeCAQUw
DQYJKoZIhvcNAQEEBQADggEBAFe0H899veqQV+tgJHptwtAYor4t3TTDINP0HZwq
YI/rBuUWpGwVYa3VKZbQgpf5H9nCsoJm6rbQD9+p1ct3X10srloftivr369Bc7tH
iIanH7mOHZwFyOR0fy+Y5v+1Hji/BbRKhSP2R/CFnlwbeRjb0HwNZJvzThMpXJTi
xlYSv02Nqh/LmOaaX4nz/wSxr4NaOb0qCXRrWUaAqgYjPZsg9OjhTpISn64CAfAj
XonjMONCp7W0m+tmETNQywv0xFNjRLenvglosw8/T41Y1QwoHbQ4zIlNFXTIB+Bj
jLIq+EB7h4bq9Vgyt1qPsZlhakAgjzZFkBfbx7hSHwlYHtk=
-----END CERTIFICATE-----
