Certificate:
    Data:
        Version: 3 (0x2)
        Serial Number: 14 (0xe)
        Signature Algorithm: md5WithRSAEncryption
        Issuer: C=CA, ST=Ontario, O=Openswan, CN=ca.openswan.org/emailAddress=ca@openswan.org
        Validity
            Not Before: Aug 29 20:48:22 2006 GMT
            Not After : Aug 29 20:48:22 2007 GMT
        Subject: C=CA, ST=Ontario, O=Openswan, L=Toronto, CN=east.uml.freeswan.org/emailAddress=east@openswan.org
        Subject Public Key Info:
            Public Key Algorithm: rsaEncryption
            RSA Public Key: (1024 bit)
                Modulus (1024 bit):
                    00:a1:47:61:e0:9a:0f:5e:9c:51:92:76:9f:44:e4:
                    ac:6e:26:e6:d8:ec:a0:ab:6e:df:71:db:49:f1:e7:
                    d6:07:39:87:73:6a:da:78:b9:0b:db:49:48:0b:1e:
                    d0:18:df:b8:4c:c4:dc:61:32:57:96:e9:73:ab:6e:
                    ac:a3:7f:d4:77:ca:67:d0:6c:47:0b:f9:f7:1f:db:
                    48:bf:d8:a0:7a:c8:7d:41:a9:33:95:36:68:0a:93:
                    4d:7c:ed:00:14:47:40:27:73:c8:d6:93:84:56:16:
                    b6:9e:9c:7d:60:c7:69:85:af:c4:29:37:f0:a3:90:
                    13:61:b1:30:a8:b8:60:a0:99
                Exponent: 65537 (0x10001)
        X509v3 extensions:
            X509v3 Basic Constraints: 
                CA:FALSE
            Netscape Comment: 
                OpenSSL Generated Certificate
            X509v3 Subject Key Identifier: 
                D2:EC:EB:7E:17:44:C8:37:4B:54:DC:88:73:A2:E6:79:4C:2D:14:51
            X509v3 Authority Key Identifier: 
                keyid:19:60:BC:92:E1:E1:3D:2C:7A:8F:EA:C0:DB:50:03:08:01:32:F0:27
                DirName:/C=CA/ST=Ontario/O=Openswan/CN=ca.openswan.org/emailAddress=ca@openswan.org
                serial:05

    Signature Algorithm: md5WithRSAEncryption
        79:2e:79:ea:50:43:45:bb:df:dd:40:da:3f:4a:d8:c9:83:cf:
        83:8c:60:52:d0:af:62:28:9e:2b:75:74:2d:f1:51:f8:95:c3:
        03:bc:82:8f:d2:0f:cd:12:f1:5e:86:12:42:05:e4:dc:d1:8b:
        cd:e5:0d:8b:5e:57:47:9f:63:ce:a4:ec:dc:a4:c6:1b:72:b5:
        3c:1f:71:93:4c:96:59:00:7a:24:a5:ea:b0:98:67:55:1a:49:
        c1:2e:51:da:ae:42:6f:0e:a8:52:16:00:4b:5b:ce:f5:c0:10:
        bd:bf:0d:a5:da:3d:88:f1:ea:cf:10:0c:33:fc:e6:7a:89:e3:
        e2:e7:e8:ed:5f:7f:c7:c7:c1:88:8f:13:fb:d0:a4:49:79:3c:
        93:40:0b:42:5e:ea:02:c3:fd:ec:86:e5:39:1d:db:67:c4:3d:
        f2:d1:2b:e9:75:be:dc:9e:d8:e8:d4:0b:c1:a1:ef:7e:cd:6b:
        61:be:1a:cf:2f:4d:83:5b:91:63:ea:80:4e:e2:56:10:d1:49:
        36:33:53:02:e9:7e:4c:ce:44:8e:56:2c:9e:0c:0c:08:4e:65:
        32:1f:2a:c6:6c:14:88:38:55:58:ff:21:40:94:46:5a:fb:0f:
        4e:95:38:85:a9:01:11:30:9a:bb:38:d4:b6:2a:fd:bc:df:93:
        21:52:6b:73
-----BEGIN CERTIFICATE-----
MIID3zCCAsegAwIBAgIBDjANBgkqhkiG9w0BAQQFADBsMQswCQYDVQQGEwJDQTEQ
MA4GA1UECBMHT250YXJpbzERMA8GA1UEChMIT3BlbnN3YW4xGDAWBgNVBAMTD2Nh
Lm9wZW5zd2FuLm9yZzEeMBwGCSqGSIb3DQEJARYPY2FAb3BlbnN3YW4ub3JnMB4X
DTA2MDgyOTIwNDgyMloXDTA3MDgyOTIwNDgyMlowgYYxCzAJBgNVBAYTAkNBMRAw
DgYDVQQIEwdPbnRhcmlvMREwDwYDVQQKEwhPcGVuc3dhbjEQMA4GA1UEBxMHVG9y
b250bzEeMBwGA1UEAxMVZWFzdC51bWwuZnJlZXN3YW4ub3JnMSAwHgYJKoZIhvcN
AQkBFhFlYXN0QG9wZW5zd2FuLm9yZzCBnzANBgkqhkiG9w0BAQEFAAOBjQAwgYkC
gYEAoUdh4JoPXpxRknafROSsbibm2Oygq27fcdtJ8efWBzmHc2raeLkL20lICx7Q
GN+4TMTcYTJXlulzq26so3/Ud8pn0GxHC/n3H9tIv9igesh9QakzlTZoCpNNfO0A
FEdAJ3PI1pOEVha2npx9YMdpha/EKTfwo5ATYbEwqLhgoJkCAwEAAaOB9DCB8TAJ
BgNVHRMEAjAAMCwGCWCGSAGG+EIBDQQfFh1PcGVuU1NMIEdlbmVyYXRlZCBDZXJ0
aWZpY2F0ZTAdBgNVHQ4EFgQU0uzrfhdEyDdLVNyIc6LmeUwtFFEwgZYGA1UdIwSB
jjCBi4AUGWC8kuHhPSx6j+rA21ADCAEy8CehcKRuMGwxCzAJBgNVBAYTAkNBMRAw
DgYDVQQIEwdPbnRhcmlvMREwDwYDVQQKEwhPcGVuc3dhbjEYMBYGA1UEAxMPY2Eu
b3BlbnN3YW4ub3JnMR4wHAYJKoZIhvcNAQkBFg9jYUBvcGVuc3dhbi5vcmeCAQUw
DQYJKoZIhvcNAQEEBQADggEBAHkueepQQ0W7391A2j9K2MmDz4OMYFLQr2Ionit1
dC3xUfiVwwO8go/SD80S8V6GEkIF5NzRi83lDYteV0efY86k7NykxhtytTwfcZNM
llkAeiSl6rCYZ1UaScEuUdquQm8OqFIWAEtbzvXAEL2/DaXaPYjx6s8QDDP85nqJ
4+Ln6O1ff8fHwYiPE/vQpEl5PJNAC0Je6gLD/eyG5Tkd22fEPfLRK+l1vtye2OjU
C8Gh737Na2G+Gs8vTYNbkWPqgE7iVhDRSTYzUwLpfkzORI5WLJ4MDAhOZTIfKsZs
FIg4VVj/IUCURlr7D06VOIWpAREwmrs41LYq/bzfkyFSa3M=
-----END CERTIFICATE-----
