Certificate:
    Data:
        Version: 3 (0x2)
        Serial Number: 4 (0x4)
        Signature Algorithm: md5WithRSAEncryption
        Issuer: C=CA, ST=Ontario, L=Toronto, O=Openswan, CN=ca.openswan.org/emailAddress=ca@openswan.org
        Validity
            Not Before: May 28 13:38:02 2004 GMT
            Not After : May 26 13:38:02 2014 GMT
        Subject: C=CA, ST=Ontario, O=Openswan, CN=ca.openswan.org/emailAddress=ca@openswan.org
        Subject Public Key Info:
            Public Key Algorithm: rsaEncryption
            RSA Public Key: (2048 bit)
                Modulus (2048 bit):
                    00:df:ec:dc:7b:a2:74:6a:f7:8a:9a:1d:26:e1:a6:
                    d4:d3:29:e7:04:4a:fb:0b:fe:89:2a:4e:e7:1c:d3:
                    db:a1:11:39:f7:a6:d2:c8:18:b0:70:a1:c8:a5:77:
                    2d:ec:1b:f8:9a:7c:ea:fc:d3:77:0a:2b:de:55:1f:
                    e5:91:59:31:20:29:e0:8d:f9:9f:79:62:b9:66:8c:
                    9b:98:1f:ae:45:92:04:e7:e9:84:f3:56:22:78:ac:
                    f3:7d:c2:ba:e0:be:2e:cb:f5:01:a6:89:46:30:19:
                    f1:e6:d2:29:8c:e4:5f:44:59:22:50:e4:c9:89:39:
                    17:74:a3:5b:ee:e1:5f:b5:1c:36:b5:08:ed:b3:9f:
                    0b:74:01:7c:f9:2a:68:b5:a9:e8:a3:77:10:be:bc:
                    ce:d8:6e:8f:6f:66:bc:aa:ee:97:9f:f2:c8:0d:4c:
                    97:c9:e7:ae:12:79:8f:13:7a:39:0c:eb:bb:32:12:
                    d1:e4:7d:00:7f:dd:59:ca:17:39:fa:22:3a:0d:de:
                    fd:9a:1b:d3:3f:0a:a1:aa:58:a8:56:a5:d1:ba:ba:
                    8b:a7:58:f0:49:f1:56:dc:b7:23:e1:48:22:c3:cc:
                    92:85:e8:8a:8c:61:fb:4c:3f:f5:38:53:08:8a:92:
                    75:7a:b7:bd:e1:5d:0e:83:e8:00:ce:25:b0:e3:fa:
                    eb:25
                Exponent: 65537 (0x10001)
        X509v3 extensions:
            X509v3 Basic Constraints: 
                CA:FALSE
            Netscape Comment: 
                OpenSSL Generated Certificate
            X509v3 Subject Key Identifier: 
                19:60:BC:92:E1:E1:3D:2C:7A:8F:EA:C0:DB:50:03:08:01:32:F0:27
            X509v3 Authority Key Identifier: 
                keyid:19:60:BC:92:E1:E1:3D:2C:7A:8F:EA:C0:DB:50:03:08:01:32:F0:27
                DirName:/C=CA/ST=Ontario/L=Toronto/O=Openswan/CN=ca.openswan.org/emailAddress=ca@openswan.org
                serial:00

    Signature Algorithm: md5WithRSAEncryption
        d1:6c:ca:48:62:63:c5:dc:26:ef:a9:d0:af:fb:0d:77:44:c0:
        33:46:c3:77:3c:a9:20:93:32:2d:7e:c0:0c:bf:4f:de:ee:bc:
        af:e0:9c:8a:20:a8:e7:e7:8b:de:f5:95:65:c4:ab:30:34:73:
        48:c8:a1:44:d6:72:0e:c2:b1:38:24:40:ad:8a:2d:78:14:ac:
        9c:09:80:a7:b6:dd:a5:40:ae:d8:85:61:f4:56:ba:f7:0f:2d:        1f:3e:50:6b:f7:34:8c:f4:0a:8c:85:57:f0:bd:da:e1:35:ba:
        14:94:97:47:7c:4e:48:18:90:b9:02:c2:1f:12:0a:59:a6:89:        ff:d7:10:b3:c8:bb:b0:4c:9b:0e:74:09:b2:5f:e2:74:ec:39:
        23:0c:eb:25:39:8a:0a:bc:03:fd:d9:d1:d9:d9:23:a9:0c:18:
        ed:06:f3:3b:34:d4:0e:1b:90:53:4f:8c:d4:b9:53:1f:b8:bb:
        33:6f:4a:2e:24:a9:ee:df:8e:2c:18:6f:86:93:31:1f:91:9b:
        d7:ca:1e:dd:9b:63:23:58:96:69:58:09:95:5f:3e:79:9a:60:
        3b:91:02:a1:79:d7:0b:2d:0c:4c:84:68:52:3e:ce:01:a5:91:
        98:9b:7a:34:fc:a3:42:e5:34:d9:e7:e4:c2:09:25:8e:ef:5b:
        c5:7e:92:b6
-----BEGIN CERTIFICATE-----
MIIEcDCCA1igAwIBAgIBBDANBgkqhkiG9w0BAQQFADB+MQswCQYDVQQGEwJDQTEQ
MA4GA1UECBMHT250YXJpbzEQMA4GA1UEBxMHVG9yb250bzERMA8GA1UEChMIT3Bl
bnN3YW4xGDAWBgNVBAMTD2NhLm9wZW5zd2FuLm9yZzEeMBwGCSqGSIb3DQEJARYP
Y2FAb3BlbnN3YW4ub3JnMB4XDTA0MDUyODEzMzgwMloXDTE0MDUyNjEzMzgwMlow
bDELMAkGA1UEBhMCQ0ExEDAOBgNVBAgTB09udGFyaW8xETAPBgNVBAoTCE9wZW5z
d2FuMRgwFgYDVQQDEw9jYS5vcGVuc3dhbi5vcmcxHjAcBgkqhkiG9w0BCQEWD2Nh
QG9wZW5zd2FuLm9yZzCCASIwDQYJKoZIhvcNAQEBBQADggEPADCCAQoCggEBAN/s
3HuidGr3ipodJuGm1NMp5wRK+wv+iSpO5xzT26EROfem0sgYsHChyKV3Lewb+Jp8
6vzTdwor3lUf5ZFZMSAp4I35n3liuWaMm5gfrkWSBOfphPNWInis833CuuC+Lsv1
AaaJRjAZ8ebSKYzkX0RZIlDkyYk5F3SjW+7hX7UcNrUI7bOfC3QBfPkqaLWp6KN3
EL68zthuj29mvKrul5/yyA1Ml8nnrhJ5jxN6OQzruzIS0eR9AH/dWcoXOfoiOg3e
/Zob0z8KoapYqFal0bq6i6dY8EnxVty3I+FIIsPMkoXoioxh+0w/9ThTCIqSdXq3
veFdDoPoAM4lsOP66yUCAwEAAaOCAQkwggEFMAkGA1UdEwQCMAAwLAYJYIZIAYb4
QgENBB8WHU9wZW5TU0wgR2VuZXJhdGVkIENlcnRpZmljYXRlMB0GA1UdDgQWBBQZ
YLyS4eE9LHqP6sDbUAMIATLwJzCBqgYDVR0jBIGiMIGfgBQZYLyS4eE9LHqP6sDb
UAMIATLwJ6GBg6SBgDB+MQswCQYDVQQGEwJDQTEQMA4GA1UECBMHT250YXJpbzEQ
MA4GA1UEBxMHVG9yb250bzERMA8GA1UEChMIT3BlbnN3YW4xGDAWBgNVBAMTD2Nh
Lm9wZW5zd2FuLm9yZzEeMBwGCSqGSIb3DQEJARYPY2FAb3BlbnN3YW4ub3JnggEA
MA0GCSqGSIb3DQEBBAUAA4IBAQDRbMpIYmPF3CbvqdCv+w13RMAzRsN3PKkgkzIt
fsAMv0/e7ryv4JyKIKjn54ve9ZVlxKswNHNIyKFE1nIOwrE4JECtii14FKycCYCn
tt2lQK7YhWH0Vrr3Dy0fPlBr9zSM9AqMhVfwvdrhNboUlJdHfE5IGJC5AsIfEgpZ
pon/1xCzyLuwTJsOdAmyX+J07DkjDOslOYoKvAP92dHZ2SOpDBjtBvM7NNQOG5BT
T4zUuVMfuLszb0ouJKnu344sGG+GkzEfkZvXyh7dm2MjWJZpWAmVXz55mmA7kQKh
edcLLQxMhGhSPs4BpZGYm3o0/KNC5TTZ5+TCCSWO71vFfpK2
-----END CERTIFICATE-----
