Certificate:
    Data:
        Version: 3 (0x2)
        Serial Number: 18 (0x12)
        Signature Algorithm: md5WithRSAEncryption
        Issuer: C=CA, ST=Ontario, O=Openswan, CN=ca.openswan.org/emailAddress=ca@openswan.org
        Validity
            Not Before: Dec 18 22:00:59 2007 GMT
            Not After : Dec 17 22:00:59 2008 GMT
        Subject: C=CA, ST=Ontario, O=Openswan, L=Toronto, CN=west.uml.freeswan.org/emailAddress=west@openswan.org
        Subject Public Key Info:
            Public Key Algorithm: rsaEncryption
            RSA Public Key: (1024 bit)
                Modulus (1024 bit):
                    00:d6:54:88:40:e5:1e:6e:74:55:01:fb:db:1a:2f:
                    de:d5:86:23:42:91:d3:f4:be:73:36:5e:10:03:f7:
                    2c:65:4f:d8:70:76:da:50:09:0c:c3:c2:7e:8f:80:
                    97:ac:8f:97:05:52:1a:aa:92:a3:3a:2e:7f:e3:2b:
                    01:11:27:03:16:29:32:2a:06:a2:e5:e0:5c:81:47:
                    85:a5:dd:0a:3d:6f:f3:7f:e6:0e:a2:b8:fc:d0:b2:
                    bf:41:39:8b:83:46:1a:0b:d5:ce:66:8f:bf:b9:8a:
                    5e:78:01:66:50:b2:a7:27:09:b5:d1:5f:3d:4d:60:
                    a7:3b:e0:6f:d3:d6:56:44:3d
                Exponent: 65537 (0x10001)
        X509v3 extensions:
            X509v3 Basic Constraints: 
                CA:FALSE
            Netscape Comment: 
                OpenSSL Generated Certificate
            X509v3 Subject Key Identifier: 
                E3:0B:BA:24:50:5B:5B:8C:BB:33:59:22:38:B9:39:46:0F:5A:A7:89
            X509v3 Authority Key Identifier: 
                keyid:19:60:BC:92:E1:E1:3D:2C:7A:8F:EA:C0:DB:50:03:08:01:32:F0:27
                DirName:/C=CA/ST=Ontario/O=Openswan/CN=ca.openswan.org/emailAddress=ca@openswan.org
                serial:05

    Signature Algorithm: md5WithRSAEncryption
        d1:1f:82:81:08:0f:f1:db:13:72:a8:98:db:56:dc:90:05:32:
        4e:03:32:64:e3:c7:3c:33:cb:38:fe:6b:36:11:e4:36:93:db:
        ce:05:bb:80:f3:20:06:bb:24:f6:e8:4b:ef:4c:6e:97:f2:1a:
        fd:21:f9:13:6e:46:14:87:51:17:4b:e9:63:fb:aa:57:d0:b1:
        14:7d:c1:85:54:8d:aa:fd:67:08:5c:e3:be:7a:db:ba:f8:8f:
        e7:d1:74:12:17:e7:36:a7:48:c7:84:d3:56:99:89:93:a3:2b:
        6f:ce:a1:03:5a:82:33:fb:59:e3:28:5f:d2:d9:d7:fd:cf:f1:
        9b:bd:a1:7e:1e:de:c0:5b:e1:99:13:7b:8c:bb:e1:2e:fc:b0:
        fa:5a:72:60:25:b2:b9:61:5e:58:53:d4:d4:4f:bb:8d:27:ce:
        8d:2d:1b:87:25:3e:ee:f3:21:2f:06:2a:a1:ba:d2:0b:58:df:
        a9:d2:e1:23:33:07:ee:4c:5d:37:f1:cb:5f:10:33:c8:2a:5b:
        07:95:9d:4f:c3:28:3f:e5:cb:6f:b4:ad:ff:1f:5b:22:78:2e:
        a2:84:b1:38:c3:1e:bf:cd:5a:a1:e0:d3:fa:2d:7c:a6:ac:d5:
        4c:eb:5e:92:3b:9d:a0:e2:3b:8b:fb:d1:31:7e:6b:f3:50:50:
        41:7d:80:3a
-----BEGIN CERTIFICATE-----
MIID3zCCAsegAwIBAgIBEjANBgkqhkiG9w0BAQQFADBsMQswCQYDVQQGEwJDQTEQ
MA4GA1UECBMHT250YXJpbzERMA8GA1UEChMIT3BlbnN3YW4xGDAWBgNVBAMTD2Nh
Lm9wZW5zd2FuLm9yZzEeMBwGCSqGSIb3DQEJARYPY2FAb3BlbnN3YW4ub3JnMB4X
DTA3MTIxODIyMDA1OVoXDTA4MTIxNzIyMDA1OVowgYYxCzAJBgNVBAYTAkNBMRAw
DgYDVQQIEwdPbnRhcmlvMREwDwYDVQQKEwhPcGVuc3dhbjEQMA4GA1UEBxMHVG9y
b250bzEeMBwGA1UEAxMVd2VzdC51bWwuZnJlZXN3YW4ub3JnMSAwHgYJKoZIhvcN
AQkBFhF3ZXN0QG9wZW5zd2FuLm9yZzCBnzANBgkqhkiG9w0BAQEFAAOBjQAwgYkC
gYEA1lSIQOUebnRVAfvbGi/e1YYjQpHT9L5zNl4QA/csZU/YcHbaUAkMw8J+j4CX
rI+XBVIaqpKjOi5/4ysBEScDFikyKgai5eBcgUeFpd0KPW/zf+YOorj80LK/QTmL
g0YaC9XOZo+/uYpeeAFmULKnJwm10V89TWCnO+Bv09ZWRD0CAwEAAaOB9DCB8TAJ
BgNVHRMEAjAAMCwGCWCGSAGG+EIBDQQfFh1PcGVuU1NMIEdlbmVyYXRlZCBDZXJ0
aWZpY2F0ZTAdBgNVHQ4EFgQU4wu6JFBbW4y7M1kiOLk5Rg9ap4kwgZYGA1UdIwSB
jjCBi4AUGWC8kuHhPSx6j+rA21ADCAEy8CehcKRuMGwxCzAJBgNVBAYTAkNBMRAw
DgYDVQQIEwdPbnRhcmlvMREwDwYDVQQKEwhPcGVuc3dhbjEYMBYGA1UEAxMPY2Eu
b3BlbnN3YW4ub3JnMR4wHAYJKoZIhvcNAQkBFg9jYUBvcGVuc3dhbi5vcmeCAQUw
DQYJKoZIhvcNAQEEBQADggEBANEfgoEID/HbE3KomNtW3JAFMk4DMmTjxzwzyzj+
azYR5DaT284Fu4DzIAa7JPboS+9MbpfyGv0h+RNuRhSHURdL6WP7qlfQsRR9wYVU
jar9Zwhc475627r4j+fRdBIX5zanSMeE01aZiZOjK2/OoQNagjP7WeMoX9LZ1/3P
8Zu9oX4e3sBb4ZkTe4y74S78sPpacmAlsrlhXlhT1NRPu40nzo0tG4clPu7zIS8G
KqG60gtY36nS4SMzB+5MXTfxy18QM8gqWweVnU/DKD/ly2+0rf8fWyJ4LqKEsTjD
Hr/NWqHg0/otfKas1UzrXpI7naDiO4v70TF+a/NQUEF9gDo=
-----END CERTIFICATE-----
