Certificate:
    Data:
        Version: 3 (0x2)
        Serial Number: 9 (0x9)
        Signature Algorithm: md5WithRSAEncryption
        Issuer: C=CA, ST=Ontario, O=Openswan, CN=ca.openswan.org/emailAddress=ca@openswan.org
        Validity
            Not Before: Dec 29 02:15:03 2004 GMT
            Not After : Dec 29 02:15:03 2005 GMT
        Subject: C=CA, ST=Ontario, O=Openswan, L=Toronto, CN=east.uml.freeswan.org/emailAddress=east@openswan.org
        Subject Public Key Info:
            Public Key Algorithm: rsaEncryption
            RSA Public Key: (1024 bit)
                Modulus (1024 bit):
                    00:a1:47:61:e0:9a:0f:5e:9c:51:92:76:9f:44:e4:
                    ac:6e:26:e6:d8:ec:a0:ab:6e:df:71:db:49:f1:e7:
                    d6:07:39:87:73:6a:da:78:b9:0b:db:49:48:0b:1e:
                    d0:18:df:b8:4c:c4:dc:61:32:57:96:e9:73:ab:6e:
                    ac:a3:7f:d4:77:ca:67:d0:6c:47:0b:f9:f7:1f:db:
                    48:bf:d8:a0:7a:c8:7d:41:a9:33:95:36:68:0a:93:
                    4d:7c:ed:00:14:47:40:27:73:c8:d6:93:84:56:16:
                    b6:9e:9c:7d:60:c7:69:85:af:c4:29:37:f0:a3:90:
                    13:61:b1:30:a8:b8:60:a0:99
                Exponent: 65537 (0x10001)
        X509v3 extensions:
            X509v3 Basic Constraints: 
                CA:FALSE
            Netscape Comment: 
                OpenSSL Generated Certificate
            X509v3 Subject Key Identifier: 
                D2:EC:EB:7E:17:44:C8:37:4B:54:DC:88:73:A2:E6:79:4C:2D:14:51
            X509v3 Authority Key Identifier: 
                keyid:19:60:BC:92:E1:E1:3D:2C:7A:8F:EA:C0:DB:50:03:08:01:32:F0:27
                DirName:/C=CA/ST=Ontario/O=Openswan/CN=ca.openswan.org/emailAddress=ca@openswan.org
                serial:05

    Signature Algorithm: md5WithRSAEncryption
        c5:e0:27:d1:fd:a6:00:e5:82:f1:2e:f1:91:4a:6c:d9:15:88:
        10:f7:df:6e:60:aa:04:6d:9e:4a:b8:5f:16:eb:9d:75:f8:5a:
        db:74:96:78:11:4c:59:34:35:d1:a8:f5:09:e4:55:16:5a:a5:
        9b:0f:47:3d:c0:fc:9e:f5:ff:4c:67:81:bc:f2:9a:80:74:99:
        ad:12:ab:b7:10:76:2d:f1:10:5b:43:4a:42:73:a7:17:84:de:
        8b:b5:5a:fc:ad:40:7c:35:15:35:19:49:5b:c1:0c:aa:18:cd:
        da:1e:01:e1:b6:33:4d:c4:f1:af:43:c7:a7:8c:ce:30:a1:50:
        cb:6f:35:d0:87:28:0f:d8:31:a3:b5:f8:48:14:00:54:00:bd:
        83:2d:e8:6c:6b:d2:e0:f0:f9:4c:67:4c:0c:a6:2a:d7:30:aa:
        78:84:40:4f:94:af:4f:90:5f:59:5c:fb:f9:57:26:8e:e9:42:
        d7:d6:0b:8d:eb:a1:0f:aa:df:04:f4:26:49:9b:dc:65:91:4c:
        04:b3:9e:0c:1a:22:55:6c:f9:da:11:0f:9a:1d:09:38:04:15:
        16:c9:22:4c:c7:32:db:e3:9e:83:c0:82:56:c7:42:4f:22:2d:
        ab:a4:6e:07:9c:2f:86:a5:10:8b:3c:ae:4e:e1:9d:af:be:53:
        27:7d:8d:5e
-----BEGIN CERTIFICATE-----
MIID3zCCAsegAwIBAgIBCTANBgkqhkiG9w0BAQQFADBsMQswCQYDVQQGEwJDQTEQ
MA4GA1UECBMHT250YXJpbzERMA8GA1UEChMIT3BlbnN3YW4xGDAWBgNVBAMTD2Nh
Lm9wZW5zd2FuLm9yZzEeMBwGCSqGSIb3DQEJARYPY2FAb3BlbnN3YW4ub3JnMB4X
DTA0MTIyOTAyMTUwM1oXDTA1MTIyOTAyMTUwM1owgYYxCzAJBgNVBAYTAkNBMRAw
DgYDVQQIEwdPbnRhcmlvMREwDwYDVQQKEwhPcGVuc3dhbjEQMA4GA1UEBxMHVG9y
b250bzEeMBwGA1UEAxMVZWFzdC51bWwuZnJlZXN3YW4ub3JnMSAwHgYJKoZIhvcN
AQkBFhFlYXN0QG9wZW5zd2FuLm9yZzCBnzANBgkqhkiG9w0BAQEFAAOBjQAwgYkC
gYEAoUdh4JoPXpxRknafROSsbibm2Oygq27fcdtJ8efWBzmHc2raeLkL20lICx7Q
GN+4TMTcYTJXlulzq26so3/Ud8pn0GxHC/n3H9tIv9igesh9QakzlTZoCpNNfO0A
FEdAJ3PI1pOEVha2npx9YMdpha/EKTfwo5ATYbEwqLhgoJkCAwEAAaOB9DCB8TAJ
BgNVHRMEAjAAMCwGCWCGSAGG+EIBDQQfFh1PcGVuU1NMIEdlbmVyYXRlZCBDZXJ0
aWZpY2F0ZTAdBgNVHQ4EFgQU0uzrfhdEyDdLVNyIc6LmeUwtFFEwgZYGA1UdIwSB
jjCBi4AUGWC8kuHhPSx6j+rA21ADCAEy8CehcKRuMGwxCzAJBgNVBAYTAkNBMRAw
DgYDVQQIEwdPbnRhcmlvMREwDwYDVQQKEwhPcGVuc3dhbjEYMBYGA1UEAxMPY2Eu
b3BlbnN3YW4ub3JnMR4wHAYJKoZIhvcNAQkBFg9jYUBvcGVuc3dhbi5vcmeCAQUw
DQYJKoZIhvcNAQEEBQADggEBAMXgJ9H9pgDlgvEu8ZFKbNkViBD3325gqgRtnkq4
XxbrnXX4Wtt0lngRTFk0NdGo9QnkVRZapZsPRz3A/J71/0xngbzymoB0ma0Sq7cQ
di3xEFtDSkJzpxeE3ou1WvytQHw1FTUZSVvBDKoYzdoeAeG2M03E8a9Dx6eMzjCh
UMtvNdCHKA/YMaO1+EgUAFQAvYMt6Gxr0uDw+UxnTAymKtcwqniEQE+Ur0+QX1lc
+/lXJo7pQtfWC43roQ+q3wT0Jkmb3GWRTASzngwaIlVs+doRD5odCTgEFRbJIkzH
MtvjnoPAglbHQk8iLaukbgecL4alEIs8rk7hna++Uyd9jV4=
-----END CERTIFICATE-----
