Certificate:
    Data:
        Version: 3 (0x2)
        Serial Number: 11 (0xb)
        Signature Algorithm: md5WithRSAEncryption
        Issuer: C=CA, ST=Ontario, O=Openswan, CN=ca.openswan.org/emailAddress=ca@openswan.org
        Validity
            Not Before: Dec 29 02:15:28 2004 GMT
            Not After : Dec 29 02:15:28 2005 GMT
        Subject: C=CA, ST=Ontario, O=Openswan, L=Toronto, CN=north.uml.freeswan.org/emailAddress=north@openswan.org
        Subject Public Key Info:
            Public Key Algorithm: rsaEncryption
            RSA Public Key: (1024 bit)
                Modulus (1024 bit):
                    00:ed:46:b5:99:1c:68:9e:0e:f7:dc:46:94:ea:31:
                    be:5b:58:6a:1e:dc:4c:35:b5:02:b3:e0:00:6a:ba:
                    fa:de:37:85:6e:53:4e:b4:65:f2:01:31:69:b0:99:
                    c2:27:7f:6b:20:91:be:14:c4:8d:d5:f8:e5:48:87:
                    10:9a:4c:5c:02:f6:0b:50:20:07:3b:ea:00:f4:89:
                    ba:ca:a3:46:1f:9a:5f:f7:b9:6e:6f:a0:e9:6f:f7:
                    98:5a:e4:c4:75:62:32:91:e1:bd:54:01:80:aa:d3:
                    0d:90:89:ff:eb:38:2e:63:8d:0e:31:e7:23:a0:65:
                    7e:a3:ab:12:28:1f:bc:9f:6d
                Exponent: 65537 (0x10001)
        X509v3 extensions:
            X509v3 Basic Constraints: 
                CA:FALSE
            Netscape Comment: 
                OpenSSL Generated Certificate
            X509v3 Subject Key Identifier: 
                DF:FE:3F:BF:4A:04:58:E9:74:57:4E:4B:69:80:2E:C8:9B:7E:A7:8C
            X509v3 Authority Key Identifier: 
                keyid:19:60:BC:92:E1:E1:3D:2C:7A:8F:EA:C0:DB:50:03:08:01:32:F0:27
                DirName:/C=CA/ST=Ontario/O=Openswan/CN=ca.openswan.org/emailAddress=ca@openswan.org
                serial:05

    Signature Algorithm: md5WithRSAEncryption
        c0:66:2d:c8:44:c7:2c:04:30:64:ab:f0:d8:66:26:a4:cb:10:
        05:e6:90:51:e8:b1:3d:f2:0b:eb:17:06:0b:1b:9e:74:46:46:
        ce:28:30:5d:14:03:b4:75:4a:44:3c:c1:bf:af:21:a2:ac:19:
        03:76:98:a6:2c:b0:73:36:f4:66:e1:fc:bf:c5:6a:2e:f8:d8:
        5d:8d:2a:5e:45:9d:8b:c3:11:a9:d5:d4:2b:07:b6:87:1e:20:
        34:47:16:c3:63:61:66:21:39:5e:f6:7c:37:ca:67:17:66:4b:
        ab:4f:e6:a5:61:3a:c5:f2:9f:83:73:1b:e7:33:b6:f8:d2:a3:
        ad:25:3e:89:74:d0:22:5a:42:30:fd:61:ca:dd:8e:22:cf:1d:
        32:c1:48:29:fe:e6:d5:5e:20:43:6c:9e:86:a4:92:e9:de:1e:
        d9:ae:9f:ae:0e:aa:3c:d3:d9:40:10:91:38:b4:ad:d2:4f:f0:
        57:f3:5e:d8:92:b7:37:1b:5b:b3:31:26:64:ac:6d:25:66:50:
        e6:af:a8:f8:dc:0e:ad:90:56:62:d7:4c:5c:d8:c9:28:eb:8f:
        59:79:b7:e0:2b:6a:97:d4:c2:84:5e:13:09:bd:f9:d0:02:62:
        41:d3:68:f0:4f:2d:db:c0:0b:97:38:e3:5c:e3:bf:aa:ff:1b:
        3b:f3:b7:fd
-----BEGIN CERTIFICATE-----
MIID4TCCAsmgAwIBAgIBCzANBgkqhkiG9w0BAQQFADBsMQswCQYDVQQGEwJDQTEQ
MA4GA1UECBMHT250YXJpbzERMA8GA1UEChMIT3BlbnN3YW4xGDAWBgNVBAMTD2Nh
Lm9wZW5zd2FuLm9yZzEeMBwGCSqGSIb3DQEJARYPY2FAb3BlbnN3YW4ub3JnMB4X
DTA0MTIyOTAyMTUyOFoXDTA1MTIyOTAyMTUyOFowgYgxCzAJBgNVBAYTAkNBMRAw
DgYDVQQIEwdPbnRhcmlvMREwDwYDVQQKEwhPcGVuc3dhbjEQMA4GA1UEBxMHVG9y
b250bzEfMB0GA1UEAxMWbm9ydGgudW1sLmZyZWVzd2FuLm9yZzEhMB8GCSqGSIb3
DQEJARYSbm9ydGhAb3BlbnN3YW4ub3JnMIGfMA0GCSqGSIb3DQEBAQUAA4GNADCB
iQKBgQDtRrWZHGieDvfcRpTqMb5bWGoe3Ew1tQKz4ABquvreN4VuU060ZfIBMWmw
mcInf2sgkb4UxI3V+OVIhxCaTFwC9gtQIAc76gD0ibrKo0Yfml/3uW5voOlv95ha
5MR1YjKR4b1UAYCq0w2Qif/rOC5jjQ4x5yOgZX6jqxIoH7yfbQIDAQABo4H0MIHx
MAkGA1UdEwQCMAAwLAYJYIZIAYb4QgENBB8WHU9wZW5TU0wgR2VuZXJhdGVkIENl
cnRpZmljYXRlMB0GA1UdDgQWBBTf/j+/SgRY6XRXTktpgC7Im36njDCBlgYDVR0j
BIGOMIGLgBQZYLyS4eE9LHqP6sDbUAMIATLwJ6FwpG4wbDELMAkGA1UEBhMCQ0Ex
EDAOBgNVBAgTB09udGFyaW8xETAPBgNVBAoTCE9wZW5zd2FuMRgwFgYDVQQDEw9j
YS5vcGVuc3dhbi5vcmcxHjAcBgkqhkiG9w0BCQEWD2NhQG9wZW5zd2FuLm9yZ4IB
BTANBgkqhkiG9w0BAQQFAAOCAQEAwGYtyETHLAQwZKvw2GYmpMsQBeaQUeixPfIL
6xcGCxuedEZGzigwXRQDtHVKRDzBv68hoqwZA3aYpiywczb0ZuH8v8VqLvjYXY0q
XkWdi8MRqdXUKwe2hx4gNEcWw2NhZiE5XvZ8N8pnF2ZLq0/mpWE6xfKfg3Mb5zO2
+NKjrSU+iXTQIlpCMP1hyt2OIs8dMsFIKf7m1V4gQ2yehqSS6d4e2a6frg6qPNPZ
QBCROLSt0k/wV/Ne2JK3NxtbszEmZKxtJWZQ5q+o+NwOrZBWYtdMXNjJKOuPWXm3
4Ctql9TChF4TCb350AJiQdNo8E8t28ALlzjjXOO/qv8bO/O3/Q==
-----END CERTIFICATE-----
