Certificate:
    Data:
        Version: 3 (0x2)
        Serial Number: 17 (0x11)
        Signature Algorithm: md5WithRSAEncryption
        Issuer: C=CA, ST=Ontario, O=Openswan, CN=ca.openswan.org/emailAddress=ca@openswan.org
        Validity
            Not Before: Dec 18 22:00:51 2007 GMT
            Not After : Dec 17 22:00:51 2008 GMT
        Subject: C=CA, ST=Ontario, O=Openswan, L=Toronto, CN=east.uml.freeswan.org/emailAddress=east@openswan.org
        Subject Public Key Info:
            Public Key Algorithm: rsaEncryption
            RSA Public Key: (1024 bit)
                Modulus (1024 bit):
                    00:a1:47:61:e0:9a:0f:5e:9c:51:92:76:9f:44:e4:
                    ac:6e:26:e6:d8:ec:a0:ab:6e:df:71:db:49:f1:e7:
                    d6:07:39:87:73:6a:da:78:b9:0b:db:49:48:0b:1e:
                    d0:18:df:b8:4c:c4:dc:61:32:57:96:e9:73:ab:6e:
                    ac:a3:7f:d4:77:ca:67:d0:6c:47:0b:f9:f7:1f:db:
                    48:bf:d8:a0:7a:c8:7d:41:a9:33:95:36:68:0a:93:
                    4d:7c:ed:00:14:47:40:27:73:c8:d6:93:84:56:16:
                    b6:9e:9c:7d:60:c7:69:85:af:c4:29:37:f0:a3:90:
                    13:61:b1:30:a8:b8:60:a0:99
                Exponent: 65537 (0x10001)
        X509v3 extensions:
            X509v3 Basic Constraints: 
                CA:FALSE
            Netscape Comment: 
                OpenSSL Generated Certificate
            X509v3 Subject Key Identifier: 
                D2:EC:EB:7E:17:44:C8:37:4B:54:DC:88:73:A2:E6:79:4C:2D:14:51
            X509v3 Authority Key Identifier: 
                keyid:19:60:BC:92:E1:E1:3D:2C:7A:8F:EA:C0:DB:50:03:08:01:32:F0:27
                DirName:/C=CA/ST=Ontario/O=Openswan/CN=ca.openswan.org/emailAddress=ca@openswan.org
                serial:05

    Signature Algorithm: md5WithRSAEncryption
        0f:7c:57:72:49:f1:e4:eb:ea:97:7e:df:c7:50:b8:cb:79:43:
        79:08:fc:b2:64:fd:97:4d:6e:d9:46:71:83:fc:d3:7f:14:c7:
        a3:3e:ff:e5:82:ac:75:4b:b2:c5:90:ce:33:70:26:eb:16:f4:
        0f:6b:0a:64:34:a3:5f:3a:47:d5:65:7f:62:b1:40:9d:f0:dd:
        f7:0b:be:93:ef:c2:8f:75:98:1d:c1:ad:34:91:35:16:0e:ec:
        65:54:81:e1:31:eb:6c:b4:b8:a4:5a:0a:92:bb:31:81:14:67:
        e0:1d:d2:b6:f3:f3:90:04:b8:aa:d6:b7:61:80:97:d2:5d:a1:
        fd:52:b4:33:5f:bc:81:ce:fc:1d:bb:50:1b:aa:f0:d0:25:6e:
        61:ea:54:38:a1:81:88:54:3d:03:37:93:ce:f3:9e:38:59:3a:
        84:fc:c5:89:06:5d:aa:16:d3:69:0d:0a:3c:60:95:ef:5e:a1:
        fb:70:64:53:09:2b:48:a7:77:7a:20:7c:fd:95:7f:ec:d0:61:
        b3:2d:c1:ff:7a:c9:9e:e6:34:75:ee:67:b8:86:61:0d:e4:f1:
        09:a5:40:ec:19:ec:a1:0a:14:a5:57:e6:4f:32:99:aa:b1:ee:
        93:50:45:df:9e:a2:5d:93:35:9a:b6:79:6b:13:a9:2a:ab:71:
        7a:9a:08:28
-----BEGIN CERTIFICATE-----
MIID3zCCAsegAwIBAgIBETANBgkqhkiG9w0BAQQFADBsMQswCQYDVQQGEwJDQTEQ
MA4GA1UECBMHT250YXJpbzERMA8GA1UEChMIT3BlbnN3YW4xGDAWBgNVBAMTD2Nh
Lm9wZW5zd2FuLm9yZzEeMBwGCSqGSIb3DQEJARYPY2FAb3BlbnN3YW4ub3JnMB4X
DTA3MTIxODIyMDA1MVoXDTA4MTIxNzIyMDA1MVowgYYxCzAJBgNVBAYTAkNBMRAw
DgYDVQQIEwdPbnRhcmlvMREwDwYDVQQKEwhPcGVuc3dhbjEQMA4GA1UEBxMHVG9y
b250bzEeMBwGA1UEAxMVZWFzdC51bWwuZnJlZXN3YW4ub3JnMSAwHgYJKoZIhvcN
AQkBFhFlYXN0QG9wZW5zd2FuLm9yZzCBnzANBgkqhkiG9w0BAQEFAAOBjQAwgYkC
gYEAoUdh4JoPXpxRknafROSsbibm2Oygq27fcdtJ8efWBzmHc2raeLkL20lICx7Q
GN+4TMTcYTJXlulzq26so3/Ud8pn0GxHC/n3H9tIv9igesh9QakzlTZoCpNNfO0A
FEdAJ3PI1pOEVha2npx9YMdpha/EKTfwo5ATYbEwqLhgoJkCAwEAAaOB9DCB8TAJ
BgNVHRMEAjAAMCwGCWCGSAGG+EIBDQQfFh1PcGVuU1NMIEdlbmVyYXRlZCBDZXJ0
aWZpY2F0ZTAdBgNVHQ4EFgQU0uzrfhdEyDdLVNyIc6LmeUwtFFEwgZYGA1UdIwSB
jjCBi4AUGWC8kuHhPSx6j+rA21ADCAEy8CehcKRuMGwxCzAJBgNVBAYTAkNBMRAw
DgYDVQQIEwdPbnRhcmlvMREwDwYDVQQKEwhPcGVuc3dhbjEYMBYGA1UEAxMPY2Eu
b3BlbnN3YW4ub3JnMR4wHAYJKoZIhvcNAQkBFg9jYUBvcGVuc3dhbi5vcmeCAQUw
DQYJKoZIhvcNAQEEBQADggEBAA98V3JJ8eTr6pd+38dQuMt5Q3kI/LJk/ZdNbtlG
cYP8038Ux6M+/+WCrHVLssWQzjNwJusW9A9rCmQ0o186R9Vlf2KxQJ3w3fcLvpPv
wo91mB3BrTSRNRYO7GVUgeEx62y0uKRaCpK7MYEUZ+Ad0rbz85AEuKrWt2GAl9Jd
of1StDNfvIHO/B27UBuq8NAlbmHqVDihgYhUPQM3k87znjhZOoT8xYkGXaoW02kN
Cjxgle9eoftwZFMJK0ind3ogfP2Vf+zQYbMtwf96yZ7mNHXuZ7iGYQ3k8QmlQOwZ
7KEKFKVX5k8ymaqx7pNQRd+eol2TNZq2eWsTqSqrcXqaCCg=
-----END CERTIFICATE-----
