Certificate:
    Data:
        Version: 3 (0x2)
        Serial Number: 8 (0x8)
        Signature Algorithm: md5WithRSAEncryption
        Issuer: C=CA, ST=Ontario, O=Openswan, CN=ca.openswan.org/emailAddress=ca@openswan.org
        Validity
            Not Before: May 28 16:53:01 2004 GMT
            Not After : May 28 16:53:01 2005 GMT
        Subject: C=CA, ST=Ontario, O=Openswan, L=Toronto, CN=north.uml.freeswan.org/emailAddress=north@openswan.org
        Subject Public Key Info:
            Public Key Algorithm: rsaEncryption
            RSA Public Key: (1024 bit)
                Modulus (1024 bit):
                    00:ed:46:b5:99:1c:68:9e:0e:f7:dc:46:94:ea:31:
                    be:5b:58:6a:1e:dc:4c:35:b5:02:b3:e0:00:6a:ba:
                    fa:de:37:85:6e:53:4e:b4:65:f2:01:31:69:b0:99:
                    c2:27:7f:6b:20:91:be:14:c4:8d:d5:f8:e5:48:87:
                    10:9a:4c:5c:02:f6:0b:50:20:07:3b:ea:00:f4:89:
                    ba:ca:a3:46:1f:9a:5f:f7:b9:6e:6f:a0:e9:6f:f7:
                    98:5a:e4:c4:75:62:32:91:e1:bd:54:01:80:aa:d3:
                    0d:90:89:ff:eb:38:2e:63:8d:0e:31:e7:23:a0:65:
                    7e:a3:ab:12:28:1f:bc:9f:6d
                Exponent: 65537 (0x10001)
        X509v3 extensions:
            X509v3 Basic Constraints: 
                CA:FALSE
            Netscape Comment: 
                OpenSSL Generated Certificate
            X509v3 Subject Key Identifier: 
                DF:FE:3F:BF:4A:04:58:E9:74:57:4E:4B:69:80:2E:C8:9B:7E:A7:8C
            X509v3 Authority Key Identifier: 
                keyid:19:60:BC:92:E1:E1:3D:2C:7A:8F:EA:C0:DB:50:03:08:01:32:F0:27
                DirName:/C=CA/ST=Ontario/O=Openswan/CN=ca.openswan.org/emailAddress=ca@openswan.org
                serial:05

    Signature Algorithm: md5WithRSAEncryption
        96:a3:a2:6f:ec:1d:27:15:f4:5d:12:4c:6b:b7:fd:f8:6d:56:
        e1:49:31:3e:bf:96:1a:b2:f4:23:46:ab:1e:e7:e8:84:25:d5:
        e1:d5:1f:4f:0a:38:68:f0:d2:b0:e9:02:d8:22:a0:c2:e5:d3:
        4e:1d:96:41:3c:04:5e:f6:4e:8b:cf:36:e7:03:02:3f:95:58:
        40:d8:72:d3:63:25:3e:25:10:1b:4c:ba:d6:a7:a6:78:5a:c2:
        ed:84:32:1a:cb:97:70:ce:09:2f:d8:60:80:53:1a:0b:f0:dd:
        1f:00:c4:24:4d:e3:89:d7:bc:a2:79:b7:ae:dd:98:c7:a0:ff:
        eb:20:3e:ed:c6:a4:21:46:d7:17:91:c9:d2:cd:46:aa:c6:55:
        d7:a4:15:14:9c:c1:58:38:d4:7e:00:c7:04:3a:e5:2d:a1:46:
        39:ec:84:dc:31:54:26:a0:4a:b8:a0:2b:7c:d3:fe:cb:00:80:
        74:9d:af:0d:a1:c1:a9:75:bc:68:5c:54:73:cb:cb:87:d9:9e:
        6e:3e:33:17:a4:c3:af:de:1c:2a:6b:d1:a0:4c:ea:28:32:85:
        df:67:4b:b3:b3:38:c4:71:be:34:fb:d7:af:12:5e:b8:40:e9:
        4b:6a:37:9e:5b:4e:2f:f5:aa:11:43:cb:16:c9:a9:f2:e2:ae:
        6e:2a:69:cc
-----BEGIN CERTIFICATE-----
MIID4TCCAsmgAwIBAgIBCDANBgkqhkiG9w0BAQQFADBsMQswCQYDVQQGEwJDQTEQ
MA4GA1UECBMHT250YXJpbzERMA8GA1UEChMIT3BlbnN3YW4xGDAWBgNVBAMTD2Nh
Lm9wZW5zd2FuLm9yZzEeMBwGCSqGSIb3DQEJARYPY2FAb3BlbnN3YW4ub3JnMB4X
DTA0MDUyODE2NTMwMVoXDTA1MDUyODE2NTMwMVowgYgxCzAJBgNVBAYTAkNBMRAw
DgYDVQQIEwdPbnRhcmlvMREwDwYDVQQKEwhPcGVuc3dhbjEQMA4GA1UEBxMHVG9y
b250bzEfMB0GA1UEAxMWbm9ydGgudW1sLmZyZWVzd2FuLm9yZzEhMB8GCSqGSIb3
DQEJARYSbm9ydGhAb3BlbnN3YW4ub3JnMIGfMA0GCSqGSIb3DQEBAQUAA4GNADCB
iQKBgQDtRrWZHGieDvfcRpTqMb5bWGoe3Ew1tQKz4ABquvreN4VuU060ZfIBMWmw
mcInf2sgkb4UxI3V+OVIhxCaTFwC9gtQIAc76gD0ibrKo0Yfml/3uW5voOlv95ha
5MR1YjKR4b1UAYCq0w2Qif/rOC5jjQ4x5yOgZX6jqxIoH7yfbQIDAQABo4H0MIHx
MAkGA1UdEwQCMAAwLAYJYIZIAYb4QgENBB8WHU9wZW5TU0wgR2VuZXJhdGVkIENl
cnRpZmljYXRlMB0GA1UdDgQWBBTf/j+/SgRY6XRXTktpgC7Im36njDCBlgYDVR0j
BIGOMIGLgBQZYLyS4eE9LHqP6sDbUAMIATLwJ6FwpG4wbDELMAkGA1UEBhMCQ0Ex
EDAOBgNVBAgTB09udGFyaW8xETAPBgNVBAoTCE9wZW5zd2FuMRgwFgYDVQQDEw9j
YS5vcGVuc3dhbi5vcmcxHjAcBgkqhkiG9w0BCQEWD2NhQG9wZW5zd2FuLm9yZ4IB
BTANBgkqhkiG9w0BAQQFAAOCAQEAlqOib+wdJxX0XRJMa7f9+G1W4UkxPr+WGrL0
I0arHufohCXV4dUfTwo4aPDSsOkC2CKgwuXTTh2WQTwEXvZOi8825wMCP5VYQNhy
02MlPiUQG0y61qemeFrC7YQyGsuXcM4JL9hggFMaC/DdHwDEJE3jide8onm3rt2Y
x6D/6yA+7cakIUbXF5HJ0s1GqsZV16QVFJzBWDjUfgDHBDrlLaFGOeyE3DFUJqBK
uKArfNP+ywCAdJ2vDaHBqXW8aFxUc8vLh9mebj4zF6TDr94cKmvRoEzqKDKF32dL
s7M4xHG+NPvXrxJeuEDpS2o3nltOL/WqEUPLFsmp8uKubippzA==
-----END CERTIFICATE-----
