Certificate:
    Data:
        Version: 3 (0x2)
        Serial Number: 16 (0x10)
        Signature Algorithm: md5WithRSAEncryption
        Issuer: C=CA, ST=Ontario, O=Openswan, CN=ca.openswan.org/emailAddress=ca@openswan.org
        Validity
            Not Before: Aug 29 20:48:48 2006 GMT
            Not After : Aug 29 20:48:48 2007 GMT
        Subject: C=CA, ST=Ontario, O=Openswan, L=Toronto, CN=north.uml.freeswan.org/emailAddress=north@openswan.org
        Subject Public Key Info:
            Public Key Algorithm: rsaEncryption
            RSA Public Key: (1024 bit)
                Modulus (1024 bit):
                    00:ed:46:b5:99:1c:68:9e:0e:f7:dc:46:94:ea:31:
                    be:5b:58:6a:1e:dc:4c:35:b5:02:b3:e0:00:6a:ba:
                    fa:de:37:85:6e:53:4e:b4:65:f2:01:31:69:b0:99:
                    c2:27:7f:6b:20:91:be:14:c4:8d:d5:f8:e5:48:87:
                    10:9a:4c:5c:02:f6:0b:50:20:07:3b:ea:00:f4:89:
                    ba:ca:a3:46:1f:9a:5f:f7:b9:6e:6f:a0:e9:6f:f7:
                    98:5a:e4:c4:75:62:32:91:e1:bd:54:01:80:aa:d3:
                    0d:90:89:ff:eb:38:2e:63:8d:0e:31:e7:23:a0:65:
                    7e:a3:ab:12:28:1f:bc:9f:6d
                Exponent: 65537 (0x10001)
        X509v3 extensions:
            X509v3 Basic Constraints: 
                CA:FALSE
            Netscape Comment: 
                OpenSSL Generated Certificate
            X509v3 Subject Key Identifier: 
                DF:FE:3F:BF:4A:04:58:E9:74:57:4E:4B:69:80:2E:C8:9B:7E:A7:8C
            X509v3 Authority Key Identifier: 
                keyid:19:60:BC:92:E1:E1:3D:2C:7A:8F:EA:C0:DB:50:03:08:01:32:F0:27
                DirName:/C=CA/ST=Ontario/O=Openswan/CN=ca.openswan.org/emailAddress=ca@openswan.org
                serial:05

    Signature Algorithm: md5WithRSAEncryption
        a7:36:e4:84:82:8a:d9:e4:7e:32:ec:01:f6:9b:da:d4:80:99:
        8f:75:dc:cb:34:91:a6:0f:1f:74:6a:58:c9:65:1c:8d:54:01:
        2f:3f:3d:c2:e9:65:60:9f:1f:96:a4:f9:94:7f:da:d8:e0:b4:
        b4:44:d8:b3:55:2b:69:e3:c1:ad:a6:e0:7e:34:35:31:e3:48:
        8e:30:de:c3:b8:3b:d3:70:61:5a:f4:b6:6d:be:f1:4f:4e:8c:
        2e:bd:2f:fc:c9:72:44:23:d9:8e:2d:c1:b3:fd:3d:89:51:ff:
        f3:97:ab:5c:5a:9b:07:cd:db:1f:eb:77:5c:a8:db:e6:a3:5a:
        e9:97:e2:73:67:17:44:3b:d8:e3:a3:e1:9c:53:72:cb:d7:a3:
        d0:37:6d:3d:de:32:0a:7b:13:6e:7e:3c:5d:95:8b:b3:37:d4:
        6f:81:bc:40:6e:1a:ba:13:50:f7:ef:f5:13:71:63:93:f8:cc:
        d3:bc:77:41:10:61:aa:a5:00:51:2a:fd:cc:a8:83:bc:ef:7e:
        37:2a:19:a9:6d:07:2b:65:48:c5:5a:e9:15:27:59:82:2f:de:
        ad:65:c1:c3:1d:99:66:05:92:55:55:24:85:03:ae:95:bd:30:
        20:79:75:8c:f0:4f:56:0e:1d:cf:5c:f5:57:8d:8e:7a:d0:7a:
        18:74:71:07
-----BEGIN CERTIFICATE-----
MIID4TCCAsmgAwIBAgIBEDANBgkqhkiG9w0BAQQFADBsMQswCQYDVQQGEwJDQTEQ
MA4GA1UECBMHT250YXJpbzERMA8GA1UEChMIT3BlbnN3YW4xGDAWBgNVBAMTD2Nh
Lm9wZW5zd2FuLm9yZzEeMBwGCSqGSIb3DQEJARYPY2FAb3BlbnN3YW4ub3JnMB4X
DTA2MDgyOTIwNDg0OFoXDTA3MDgyOTIwNDg0OFowgYgxCzAJBgNVBAYTAkNBMRAw
DgYDVQQIEwdPbnRhcmlvMREwDwYDVQQKEwhPcGVuc3dhbjEQMA4GA1UEBxMHVG9y
b250bzEfMB0GA1UEAxMWbm9ydGgudW1sLmZyZWVzd2FuLm9yZzEhMB8GCSqGSIb3
DQEJARYSbm9ydGhAb3BlbnN3YW4ub3JnMIGfMA0GCSqGSIb3DQEBAQUAA4GNADCB
iQKBgQDtRrWZHGieDvfcRpTqMb5bWGoe3Ew1tQKz4ABquvreN4VuU060ZfIBMWmw
mcInf2sgkb4UxI3V+OVIhxCaTFwC9gtQIAc76gD0ibrKo0Yfml/3uW5voOlv95ha
5MR1YjKR4b1UAYCq0w2Qif/rOC5jjQ4x5yOgZX6jqxIoH7yfbQIDAQABo4H0MIHx
MAkGA1UdEwQCMAAwLAYJYIZIAYb4QgENBB8WHU9wZW5TU0wgR2VuZXJhdGVkIENl
cnRpZmljYXRlMB0GA1UdDgQWBBTf/j+/SgRY6XRXTktpgC7Im36njDCBlgYDVR0j
BIGOMIGLgBQZYLyS4eE9LHqP6sDbUAMIATLwJ6FwpG4wbDELMAkGA1UEBhMCQ0Ex
EDAOBgNVBAgTB09udGFyaW8xETAPBgNVBAoTCE9wZW5zd2FuMRgwFgYDVQQDEw9j
YS5vcGVuc3dhbi5vcmcxHjAcBgkqhkiG9w0BCQEWD2NhQG9wZW5zd2FuLm9yZ4IB
BTANBgkqhkiG9w0BAQQFAAOCAQEApzbkhIKK2eR+MuwB9pva1ICZj3XcyzSRpg8f
dGpYyWUcjVQBLz89wullYJ8flqT5lH/a2OC0tETYs1UraePBrabgfjQ1MeNIjjDe
w7g703BhWvS2bb7xT06MLr0v/MlyRCPZji3Bs/09iVH/85erXFqbB83bH+t3XKjb
5qNa6Zfic2cXRDvY46PhnFNyy9ej0DdtPd4yCnsTbn48XZWLszfUb4G8QG4auhNQ
9+/1E3Fjk/jM07x3QRBhqqUAUSr9zKiDvO9+NyoZqW0HK2VIxVrpFSdZgi/erWXB
wx2ZZgWSVVUkhQOulb0wIHl1jPBPVg4dz1z1V42OetB6GHRxBw==
-----END CERTIFICATE-----
