Certificate:
    Data:
        Version: 3 (0x2)
        Serial Number: 10 (0xa)
        Signature Algorithm: md5WithRSAEncryption
        Issuer: C=CA, ST=Ontario, O=Openswan, CN=ca.openswan.org/emailAddress=ca@openswan.org
        Validity
            Not Before: Dec 29 02:15:23 2004 GMT
            Not After : Dec 29 02:15:23 2005 GMT
        Subject: C=CA, ST=Ontario, O=Openswan, L=Toronto, CN=west.uml.freeswan.org/emailAddress=west@openswan.org
        Subject Public Key Info:
            Public Key Algorithm: rsaEncryption
            RSA Public Key: (1024 bit)
                Modulus (1024 bit):
                    00:d6:54:88:40:e5:1e:6e:74:55:01:fb:db:1a:2f:
                    de:d5:86:23:42:91:d3:f4:be:73:36:5e:10:03:f7:
                    2c:65:4f:d8:70:76:da:50:09:0c:c3:c2:7e:8f:80:
                    97:ac:8f:97:05:52:1a:aa:92:a3:3a:2e:7f:e3:2b:
                    01:11:27:03:16:29:32:2a:06:a2:e5:e0:5c:81:47:
                    85:a5:dd:0a:3d:6f:f3:7f:e6:0e:a2:b8:fc:d0:b2:
                    bf:41:39:8b:83:46:1a:0b:d5:ce:66:8f:bf:b9:8a:
                    5e:78:01:66:50:b2:a7:27:09:b5:d1:5f:3d:4d:60:
                    a7:3b:e0:6f:d3:d6:56:44:3d
                Exponent: 65537 (0x10001)
        X509v3 extensions:
            X509v3 Basic Constraints: 
                CA:FALSE
            Netscape Comment: 
                OpenSSL Generated Certificate
            X509v3 Subject Key Identifier: 
                E3:0B:BA:24:50:5B:5B:8C:BB:33:59:22:38:B9:39:46:0F:5A:A7:89
            X509v3 Authority Key Identifier: 
                keyid:19:60:BC:92:E1:E1:3D:2C:7A:8F:EA:C0:DB:50:03:08:01:32:F0:27
                DirName:/C=CA/ST=Ontario/O=Openswan/CN=ca.openswan.org/emailAddress=ca@openswan.org
                serial:05

    Signature Algorithm: md5WithRSAEncryption
        64:e2:38:ad:9a:ed:e1:51:3f:84:fe:5e:b4:22:8a:13:85:a1:
        ca:d7:7c:a0:2d:d2:29:c5:99:c8:33:33:af:2a:c2:c6:bb:a3:
        ab:8a:1f:1c:3d:bf:c0:47:93:bc:3d:84:e9:96:b2:0f:6b:0d:
        66:96:9e:a4:94:f7:f1:c7:6e:f8:e5:02:f9:d5:bf:e9:f4:17:
        6a:c9:25:ec:af:7f:ad:5d:72:cd:5c:9f:65:5b:68:cd:60:9b:
        e7:ea:17:36:39:c7:bb:43:ff:97:9f:0e:1c:1a:12:89:bb:09:
        3f:c3:fe:b9:8f:25:87:97:b5:0f:fa:30:67:8e:de:0a:11:2d:
        3a:a9:50:df:16:fa:1b:d1:d8:64:24:4c:af:19:3c:b8:b4:9d:
        71:f5:88:c4:62:21:1d:4c:2a:74:2f:b3:b8:39:76:4f:21:32:
        81:1a:a5:5f:5b:06:25:44:68:28:77:df:08:63:a7:42:bc:cd:
        3e:5d:38:7b:ef:be:9a:01:bc:53:2b:76:a8:b6:28:7d:ca:27:
        b2:e6:30:a9:41:56:35:65:55:9e:56:b8:de:f4:1f:62:dd:a1:
        c6:d5:2f:7b:6e:b4:27:bb:f0:e7:53:65:02:70:0f:3b:1e:c7:
        be:ba:ec:fa:ab:c3:78:83:60:74:4a:ce:36:ff:e0:53:b2:22:
        46:13:94:3b
-----BEGIN CERTIFICATE-----
MIID3zCCAsegAwIBAgIBCjANBgkqhkiG9w0BAQQFADBsMQswCQYDVQQGEwJDQTEQ
MA4GA1UECBMHT250YXJpbzERMA8GA1UEChMIT3BlbnN3YW4xGDAWBgNVBAMTD2Nh
Lm9wZW5zd2FuLm9yZzEeMBwGCSqGSIb3DQEJARYPY2FAb3BlbnN3YW4ub3JnMB4X
DTA0MTIyOTAyMTUyM1oXDTA1MTIyOTAyMTUyM1owgYYxCzAJBgNVBAYTAkNBMRAw
DgYDVQQIEwdPbnRhcmlvMREwDwYDVQQKEwhPcGVuc3dhbjEQMA4GA1UEBxMHVG9y
b250bzEeMBwGA1UEAxMVd2VzdC51bWwuZnJlZXN3YW4ub3JnMSAwHgYJKoZIhvcN
AQkBFhF3ZXN0QG9wZW5zd2FuLm9yZzCBnzANBgkqhkiG9w0BAQEFAAOBjQAwgYkC
gYEA1lSIQOUebnRVAfvbGi/e1YYjQpHT9L5zNl4QA/csZU/YcHbaUAkMw8J+j4CX
rI+XBVIaqpKjOi5/4ysBEScDFikyKgai5eBcgUeFpd0KPW/zf+YOorj80LK/QTmL
g0YaC9XOZo+/uYpeeAFmULKnJwm10V89TWCnO+Bv09ZWRD0CAwEAAaOB9DCB8TAJ
BgNVHRMEAjAAMCwGCWCGSAGG+EIBDQQfFh1PcGVuU1NMIEdlbmVyYXRlZCBDZXJ0
aWZpY2F0ZTAdBgNVHQ4EFgQU4wu6JFBbW4y7M1kiOLk5Rg9ap4kwgZYGA1UdIwSB
jjCBi4AUGWC8kuHhPSx6j+rA21ADCAEy8CehcKRuMGwxCzAJBgNVBAYTAkNBMRAw
DgYDVQQIEwdPbnRhcmlvMREwDwYDVQQKEwhPcGVuc3dhbjEYMBYGA1UEAxMPY2Eu
b3BlbnN3YW4ub3JnMR4wHAYJKoZIhvcNAQkBFg9jYUBvcGVuc3dhbi5vcmeCAQUw
DQYJKoZIhvcNAQEEBQADggEBAGTiOK2a7eFRP4T+XrQiihOFocrXfKAt0inFmcgz
M68qwsa7o6uKHxw9v8BHk7w9hOmWsg9rDWaWnqSU9/HHbvjlAvnVv+n0F2rJJeyv
f61dcs1cn2VbaM1gm+fqFzY5x7tD/5efDhwaEom7CT/D/rmPJYeXtQ/6MGeO3goR
LTqpUN8W+hvR2GQkTK8ZPLi0nXH1iMRiIR1MKnQvs7g5dk8hMoEapV9bBiVEaCh3
3whjp0K8zT5dOHvvvpoBvFMrdqi2KH3KJ7LmMKlBVjVlVZ5WuN70H2LdocbVL3tu
tCe78OdTZQJwDzsex7667Pqrw3iDYHRKzjb/4FOyIkYTlDs=
-----END CERTIFICATE-----
