Certificate:
    Data:
        Version: 3 (0x2)
        Serial Number: 15 (0xf)
        Signature Algorithm: md5WithRSAEncryption
        Issuer: C=CA, ST=Ontario, O=Openswan, CN=ca.openswan.org/emailAddress=ca@openswan.org
        Validity
            Not Before: Aug 29 20:48:36 2006 GMT
            Not After : Aug 29 20:48:36 2007 GMT
        Subject: C=CA, ST=Ontario, O=Openswan, L=Toronto, CN=west.uml.freeswan.org/emailAddress=west@openswan.org
        Subject Public Key Info:
            Public Key Algorithm: rsaEncryption
            RSA Public Key: (1024 bit)
                Modulus (1024 bit):
                    00:d6:54:88:40:e5:1e:6e:74:55:01:fb:db:1a:2f:
                    de:d5:86:23:42:91:d3:f4:be:73:36:5e:10:03:f7:
                    2c:65:4f:d8:70:76:da:50:09:0c:c3:c2:7e:8f:80:
                    97:ac:8f:97:05:52:1a:aa:92:a3:3a:2e:7f:e3:2b:
                    01:11:27:03:16:29:32:2a:06:a2:e5:e0:5c:81:47:
                    85:a5:dd:0a:3d:6f:f3:7f:e6:0e:a2:b8:fc:d0:b2:
                    bf:41:39:8b:83:46:1a:0b:d5:ce:66:8f:bf:b9:8a:
                    5e:78:01:66:50:b2:a7:27:09:b5:d1:5f:3d:4d:60:
                    a7:3b:e0:6f:d3:d6:56:44:3d
                Exponent: 65537 (0x10001)
        X509v3 extensions:
            X509v3 Basic Constraints: 
                CA:FALSE
            Netscape Comment: 
                OpenSSL Generated Certificate
            X509v3 Subject Key Identifier: 
                E3:0B:BA:24:50:5B:5B:8C:BB:33:59:22:38:B9:39:46:0F:5A:A7:89
            X509v3 Authority Key Identifier: 
                keyid:19:60:BC:92:E1:E1:3D:2C:7A:8F:EA:C0:DB:50:03:08:01:32:F0:27
                DirName:/C=CA/ST=Ontario/O=Openswan/CN=ca.openswan.org/emailAddress=ca@openswan.org
                serial:05

    Signature Algorithm: md5WithRSAEncryption
        ae:0c:28:e2:75:1e:5d:35:12:6e:25:9b:91:5b:e2:e2:7d:45:
        60:25:32:e9:f9:02:eb:86:b7:f8:b1:05:9b:a2:d7:de:7b:f8:
        d0:92:99:ca:93:53:19:99:b3:b5:2d:da:49:c7:bd:3f:ef:99:
        cd:96:03:cd:4e:54:48:09:79:1b:61:4e:4d:9f:45:61:95:25:
        da:ed:4a:81:48:2b:00:21:b3:2d:69:cb:a0:6c:79:e8:37:a4:
        bc:32:18:02:d7:88:94:a8:63:fc:97:6b:69:21:9d:39:ac:92:
        39:00:88:9a:79:46:ae:ee:08:12:98:71:8b:b4:05:45:26:9e:
        a0:c7:b5:44:a3:21:e8:2d:8e:df:77:bc:8f:ab:4a:2f:ea:6a:
        9c:2d:aa:41:36:7e:08:12:e7:ad:06:ef:53:88:e9:f5:dd:3c:
        eb:ce:df:eb:4d:19:5e:c0:cb:96:1e:83:61:85:ce:72:d3:80:
        9d:df:02:15:8e:15:9d:32:cb:6c:a3:77:08:36:f6:ac:0d:4f:
        eb:6e:7d:93:59:dc:34:b8:36:b9:6e:5c:11:b4:a6:6c:e5:1a:
        ee:5e:96:9a:c4:83:7e:24:3e:71:39:2c:4c:44:9e:55:2b:a9:
        8a:79:e1:34:7c:fe:8e:d6:ab:65:06:3b:10:f7:50:33:f8:84:
        27:d1:44:b8
-----BEGIN CERTIFICATE-----
MIID3zCCAsegAwIBAgIBDzANBgkqhkiG9w0BAQQFADBsMQswCQYDVQQGEwJDQTEQ
MA4GA1UECBMHT250YXJpbzERMA8GA1UEChMIT3BlbnN3YW4xGDAWBgNVBAMTD2Nh
Lm9wZW5zd2FuLm9yZzEeMBwGCSqGSIb3DQEJARYPY2FAb3BlbnN3YW4ub3JnMB4X
DTA2MDgyOTIwNDgzNloXDTA3MDgyOTIwNDgzNlowgYYxCzAJBgNVBAYTAkNBMRAw
DgYDVQQIEwdPbnRhcmlvMREwDwYDVQQKEwhPcGVuc3dhbjEQMA4GA1UEBxMHVG9y
b250bzEeMBwGA1UEAxMVd2VzdC51bWwuZnJlZXN3YW4ub3JnMSAwHgYJKoZIhvcN
AQkBFhF3ZXN0QG9wZW5zd2FuLm9yZzCBnzANBgkqhkiG9w0BAQEFAAOBjQAwgYkC
gYEA1lSIQOUebnRVAfvbGi/e1YYjQpHT9L5zNl4QA/csZU/YcHbaUAkMw8J+j4CX
rI+XBVIaqpKjOi5/4ysBEScDFikyKgai5eBcgUeFpd0KPW/zf+YOorj80LK/QTmL
g0YaC9XOZo+/uYpeeAFmULKnJwm10V89TWCnO+Bv09ZWRD0CAwEAAaOB9DCB8TAJ
BgNVHRMEAjAAMCwGCWCGSAGG+EIBDQQfFh1PcGVuU1NMIEdlbmVyYXRlZCBDZXJ0
aWZpY2F0ZTAdBgNVHQ4EFgQU4wu6JFBbW4y7M1kiOLk5Rg9ap4kwgZYGA1UdIwSB
jjCBi4AUGWC8kuHhPSx6j+rA21ADCAEy8CehcKRuMGwxCzAJBgNVBAYTAkNBMRAw
DgYDVQQIEwdPbnRhcmlvMREwDwYDVQQKEwhPcGVuc3dhbjEYMBYGA1UEAxMPY2Eu
b3BlbnN3YW4ub3JnMR4wHAYJKoZIhvcNAQkBFg9jYUBvcGVuc3dhbi5vcmeCAQUw
DQYJKoZIhvcNAQEEBQADggEBAK4MKOJ1Hl01Em4lm5Fb4uJ9RWAlMun5AuuGt/ix
BZui1957+NCSmcqTUxmZs7Ut2knHvT/vmc2WA81OVEgJeRthTk2fRWGVJdrtSoFI
KwAhsy1py6Bseeg3pLwyGALXiJSoY/yXa2khnTmskjkAiJp5Rq7uCBKYcYu0BUUm
nqDHtUSjIegtjt93vI+rSi/qapwtqkE2fggS560G71OI6fXdPOvO3+tNGV7Ay5Ye
g2GFznLTgJ3fAhWOFZ0yy2yjdwg29qwNT+tufZNZ3DS4NrluXBG0pmzlGu5elprE
g34kPnE5LExEnlUrqYp54TR8/o7Wq2UGOxD3UDP4hCfRRLg=
-----END CERTIFICATE-----
