Certificate:
    Data:
        Version: 3 (0x2)
        Serial Number: 19 (0x13)
        Signature Algorithm: md5WithRSAEncryption
        Issuer: C=CA, ST=Ontario, O=Openswan, CN=ca.openswan.org/emailAddress=ca@openswan.org
        Validity
            Not Before: Dec 18 22:01:08 2007 GMT
            Not After : Dec 17 22:01:08 2008 GMT
        Subject: C=CA, ST=Ontario, O=Openswan, L=Toronto, CN=north.uml.freeswan.org/emailAddress=north@openswan.org
        Subject Public Key Info:
            Public Key Algorithm: rsaEncryption
            RSA Public Key: (1024 bit)
                Modulus (1024 bit):
                    00:ed:46:b5:99:1c:68:9e:0e:f7:dc:46:94:ea:31:
                    be:5b:58:6a:1e:dc:4c:35:b5:02:b3:e0:00:6a:ba:
                    fa:de:37:85:6e:53:4e:b4:65:f2:01:31:69:b0:99:
                    c2:27:7f:6b:20:91:be:14:c4:8d:d5:f8:e5:48:87:
                    10:9a:4c:5c:02:f6:0b:50:20:07:3b:ea:00:f4:89:
                    ba:ca:a3:46:1f:9a:5f:f7:b9:6e:6f:a0:e9:6f:f7:
                    98:5a:e4:c4:75:62:32:91:e1:bd:54:01:80:aa:d3:
                    0d:90:89:ff:eb:38:2e:63:8d:0e:31:e7:23:a0:65:
                    7e:a3:ab:12:28:1f:bc:9f:6d
                Exponent: 65537 (0x10001)
        X509v3 extensions:
            X509v3 Basic Constraints: 
                CA:FALSE
            Netscape Comment: 
                OpenSSL Generated Certificate
            X509v3 Subject Key Identifier: 
                DF:FE:3F:BF:4A:04:58:E9:74:57:4E:4B:69:80:2E:C8:9B:7E:A7:8C
            X509v3 Authority Key Identifier: 
                keyid:19:60:BC:92:E1:E1:3D:2C:7A:8F:EA:C0:DB:50:03:08:01:32:F0:27
                DirName:/C=CA/ST=Ontario/O=Openswan/CN=ca.openswan.org/emailAddress=ca@openswan.org
                serial:05

    Signature Algorithm: md5WithRSAEncryption
        1a:d5:a3:07:fb:27:63:9e:54:cd:b5:7e:12:2e:0b:74:4e:48:
        bd:7c:0f:9a:14:a2:43:f9:ad:c3:32:be:85:c6:13:5a:37:b7:
        63:05:46:d2:57:3a:51:f1:39:85:cd:fc:b5:af:f8:b3:05:1f:
        c6:a6:3d:ce:d1:c3:bf:ef:7f:84:a1:75:a9:34:63:fa:e8:51:
        4c:7a:a9:99:cb:95:0f:42:a8:db:00:4c:26:09:ff:96:d1:cb:
        28:09:e4:77:d7:db:0e:ab:4a:36:1d:3a:73:72:25:82:7c:61:
        0f:56:40:f3:61:be:7a:c4:af:16:4e:2b:46:f7:2b:cc:27:cb:
        58:be:1e:a6:63:40:fc:be:47:21:06:05:80:ac:d8:3f:f9:55:
        bc:1e:df:11:55:af:55:21:6c:b1:3d:a6:68:7d:d2:10:8b:2b:
        e3:9c:94:c7:3b:1c:14:0c:ee:13:b7:a1:26:00:fd:52:05:ec:
        c5:a5:58:f5:d9:35:56:97:77:74:4b:32:cf:fd:d5:1f:bf:a0:
        45:8f:a5:17:dc:29:54:a1:f9:f6:7e:b0:b6:a0:ce:e0:76:69:
        be:0a:9f:dd:d6:ef:fe:38:5e:ed:61:96:ff:d6:d4:0e:48:94:
        4b:18:95:32:7c:6b:d9:0c:e6:57:6b:ab:b0:53:2e:05:3f:99:
        86:f7:c1:a9
-----BEGIN CERTIFICATE-----
MIID4TCCAsmgAwIBAgIBEzANBgkqhkiG9w0BAQQFADBsMQswCQYDVQQGEwJDQTEQ
MA4GA1UECBMHT250YXJpbzERMA8GA1UEChMIT3BlbnN3YW4xGDAWBgNVBAMTD2Nh
Lm9wZW5zd2FuLm9yZzEeMBwGCSqGSIb3DQEJARYPY2FAb3BlbnN3YW4ub3JnMB4X
DTA3MTIxODIyMDEwOFoXDTA4MTIxNzIyMDEwOFowgYgxCzAJBgNVBAYTAkNBMRAw
DgYDVQQIEwdPbnRhcmlvMREwDwYDVQQKEwhPcGVuc3dhbjEQMA4GA1UEBxMHVG9y
b250bzEfMB0GA1UEAxMWbm9ydGgudW1sLmZyZWVzd2FuLm9yZzEhMB8GCSqGSIb3
DQEJARYSbm9ydGhAb3BlbnN3YW4ub3JnMIGfMA0GCSqGSIb3DQEBAQUAA4GNADCB
iQKBgQDtRrWZHGieDvfcRpTqMb5bWGoe3Ew1tQKz4ABquvreN4VuU060ZfIBMWmw
mcInf2sgkb4UxI3V+OVIhxCaTFwC9gtQIAc76gD0ibrKo0Yfml/3uW5voOlv95ha
5MR1YjKR4b1UAYCq0w2Qif/rOC5jjQ4x5yOgZX6jqxIoH7yfbQIDAQABo4H0MIHx
MAkGA1UdEwQCMAAwLAYJYIZIAYb4QgENBB8WHU9wZW5TU0wgR2VuZXJhdGVkIENl
cnRpZmljYXRlMB0GA1UdDgQWBBTf/j+/SgRY6XRXTktpgC7Im36njDCBlgYDVR0j
BIGOMIGLgBQZYLyS4eE9LHqP6sDbUAMIATLwJ6FwpG4wbDELMAkGA1UEBhMCQ0Ex
EDAOBgNVBAgTB09udGFyaW8xETAPBgNVBAoTCE9wZW5zd2FuMRgwFgYDVQQDEw9j
YS5vcGVuc3dhbi5vcmcxHjAcBgkqhkiG9w0BCQEWD2NhQG9wZW5zd2FuLm9yZ4IB
BTANBgkqhkiG9w0BAQQFAAOCAQEAGtWjB/snY55UzbV+Ei4LdE5IvXwPmhSiQ/mt
wzK+hcYTWje3YwVG0lc6UfE5hc38ta/4swUfxqY9ztHDv+9/hKF1qTRj+uhRTHqp
mcuVD0Ko2wBMJgn/ltHLKAnkd9fbDqtKNh06c3IlgnxhD1ZA82G+esSvFk4rRvcr
zCfLWL4epmNA/L5HIQYFgKzYP/lVvB7fEVWvVSFssT2maH3SEIsr45yUxzscFAzu
E7ehJgD9UgXsxaVY9dk1Vpd3dEsyz/3VH7+gRY+lF9wpVKH59n6wtqDO4HZpvgqf
3dbv/jhe7WGW/9bUDkiUSxiVMnxr2QzmV2ursFMuBT+ZhvfBqQ==
-----END CERTIFICATE-----
